Component: ARM Compiler 5.05 update 1 (build 106) Tool: armlink [4d0efa]

==============================================================================

Section Cross References

    main.o(.text) refers to misc.o(.text) for NVIC_PriorityGroupConfig
    main.o(.text) refers to delay.o(.text) for delay_init
    main.o(.text) refers to basicperipherals.o(.text) for BasicPreiph_Init
    main.o(.text) refers to buzzer.o(.text) for buzzer_init
    main.o(.text) refers to frictionmoterpwm.o(.text) for FrictionMoterPWM_Init
    main.o(.text) refers to usart.o(.text) for uart_init
    main.o(.text) refers to motorcan.o(.text) for MoterCanInit
    main.o(.text) refers to mainfocus_usart.o(.text) for MainFocusConfig
    main.o(.text) refers to usart6.o(.text) for USART6_Init
    main.o(.text) refers to adc.o(.text) for temperature_ADC_init
    main.o(.text) refers to power_ctrl.o(.text) for power_ctrl_configuration
    main.o(.text) refers to remotdbus.o(.text) for RemotDbus_Init
    main.o(.text) refers to calibrate_task.o(.text) for cali_param_init
    main.o(.text) refers to start_task.o(.text) for StartTask
    main.o(.text) refers to tasks.o(.text) for vTaskStartScheduler
    stm32f4xx_it.o(.text) refers to stm32f4xx_exti.o(.text) for EXTI_GetITStatus
    stm32f4xx_it.o(.text) refers to stm32f4xx_usart.o(.text) for USART_GetITStatus
    stm32f4xx_it.o(.text) refers to stm32f4xx_dma.o(.text) for DMA_GetCurrentMemoryTarget
    stm32f4xx_it.o(.text) refers to remotdbus.o(.text) for SBUS_TO_RC
    stm32f4xx_it.o(.text) refers to detect_task.o(.text) for DetectHook
    stm32f4xx_it.o(.text) refers to stm32f4xx_can.o(.text) for CAN_GetITStatus
    stm32f4xx_it.o(.text) refers to motorcan.o(.text) for CAN_hook
    stm32f4xx_it.o(.text) refers to stm32f4xx_tim.o(.text) for TIM_GetITStatus
    stm32f4xx_it.o(.text) refers to auto_attacktask.o(.text) for receiveMainFocusData
    stm32f4xx_it.o(.text) refers to stm32f4xx_it.o(.data) for this_time_rx_len
    stm32f4xx_it.o(.text) refers to remotdbus.o(.bss) for rc_ctrl
    stm32f4xx_it.o(.text) refers to auto_attacktask.o(.bss) for mainfocus_rx_buffer
    system_stm32f4xx.o(.text) refers to system_stm32f4xx.o(.data) for SystemCoreClock
    basicperipherals.o(.text) refers to stm32f4xx_rcc.o(.text) for RCC_AHB1PeriphClockCmd
    basicperipherals.o(.text) refers to stm32f4xx_gpio.o(.text) for GPIO_Init
    basicperipherals.o(.text) refers to stm32f4xx_syscfg.o(.text) for SYSCFG_EXTILineConfig
    basicperipherals.o(.text) refers to stm32f4xx_exti.o(.text) for EXTI_Init
    basicperipherals.o(.text) refers to misc.o(.text) for NVIC_Init
    basicperipherals.o(.text) refers to tasks.o(.text) for vTaskDelay
    basicperipherals.o(.text) refers to stm32f4xx_tim.o(.text) for TIM_ARRPreloadConfig
    basicperipherals.o(.text) refers to basicperipherals.o(.data) for FreeRTOSRunTimeTicks
    remotdbus.o(.text) refers to stm32f4xx_rcc.o(.text) for RCC_AHB1PeriphClockCmd
    remotdbus.o(.text) refers to stm32f4xx_gpio.o(.text) for GPIO_Init
    remotdbus.o(.text) refers to stm32f4xx_usart.o(.text) for USART_DeInit
    remotdbus.o(.text) refers to misc.o(.text) for NVIC_Init
    remotdbus.o(.text) refers to stm32f4xx_dma.o(.text) for DMA_Cmd
    remotdbus.o(.text) refers to remotdbus.o(.bss) for sbus_rx_buffer
    frictionmoterpwm.o(.text) refers to stm32f4xx_rcc.o(.text) for RCC_APB1PeriphClockCmd
    frictionmoterpwm.o(.text) refers to stm32f4xx_gpio.o(.text) for GPIO_PinAFConfig
    frictionmoterpwm.o(.text) refers to stm32f4xx_tim.o(.text) for TIM_TimeBaseInit
    motorcan.o(.text) refers to stm32f4xx_rcc.o(.text) for RCC_APB1PeriphClockCmd
    motorcan.o(.text) refers to stm32f4xx_gpio.o(.text) for GPIO_Init
    motorcan.o(.text) refers to misc.o(.text) for NVIC_Init
    motorcan.o(.text) refers to stm32f4xx_can.o(.text) for CAN_DeInit
    motorcan.o(.text) refers to detect_task.o(.text) for DetectHook
    motorcan.o(.text) refers to motorcan.o(.bss) for motor_yaw
    motorcan.o(.text) refers to motorcan.o(.data) for i
    stmflash.o(.text) refers to stm32f4xx_flash.o(.text) for FLASH_Unlock
    mainfocus_usart.o(.text) refers to stm32f4xx_rcc.o(.text) for RCC_APB1PeriphClockCmd
    mainfocus_usart.o(.text) refers to stm32f4xx_gpio.o(.text) for GPIO_PinAFConfig
    mainfocus_usart.o(.text) refers to stm32f4xx_dma.o(.text) for DMA_DeInit
    mainfocus_usart.o(.text) refers to stm32f4xx_usart.o(.text) for USART_DeInit
    mainfocus_usart.o(.text) refers to misc.o(.text) for NVIC_Init
    mainfocus_usart.o(.text) refers to auto_attacktask.o(.bss) for mainfocus_rx_buffer
    adc.o(.text) refers to stm32f4xx_adc.o(.text) for ADC_Init
    adc.o(.text) refers to stm32f4xx_rcc.o(.text) for RCC_APB2PeriphClockCmd
    buzzer.o(.text) refers to stm32f4xx_tim.o(.text) for TIM_SetCompare1
    buzzer.o(.text) refers to stm32f4xx_rcc.o(.text) for RCC_APB1PeriphClockCmd
    buzzer.o(.text) refers to stm32f4xx_gpio.o(.text) for GPIO_PinAFConfig
    exit_init.o(.text) refers to stm32f4xx_rcc.o(.text) for RCC_AHB1PeriphClockCmd
    exit_init.o(.text) refers to stm32f4xx_syscfg.o(.text) for SYSCFG_EXTILineConfig
    exit_init.o(.text) refers to stm32f4xx_gpio.o(.text) for GPIO_Init
    exit_init.o(.text) refers to stm32f4xx_exti.o(.text) for EXTI_Init
    exit_init.o(.text) refers to misc.o(.text) for NVIC_Init
    flash.o(.text) refers to stm32f4xx_flash.o(.text) for FLASH_Unlock
    flash.o(.text) refers to flash.o(.data) for SectorsWRPStatus
    spi.o(.text) refers to stm32f4xx_rcc.o(.text) for RCC_AHB1PeriphClockCmd
    spi.o(.text) refers to stm32f4xx_gpio.o(.text) for GPIO_Init
    spi.o(.text) refers to stm32f4xx_spi.o(.text) for SPI_Init
    spi.o(.text) refers to misc.o(.text) for NVIC_Init
    spi.o(.text) refers to stm32f4xx_dma.o(.text) for DMA_DeInit
    timer.o(.text) refers to stm32f4xx_rcc.o(.text) for RCC_AHB1PeriphClockCmd
    timer.o(.text) refers to stm32f4xx_gpio.o(.text) for GPIO_PinAFConfig
    timer.o(.text) refers to stm32f4xx_tim.o(.text) for TIM_TimeBaseInit
    timer.o(.text) refers to misc.o(.text) for NVIC_Init
    power_ctrl.o(.text) refers to stm32f4xx_gpio.o(.text) for GPIO_ResetBits
    power_ctrl.o(.text) refers to stm32f4xx_rcc.o(.text) for RCC_AHB1PeriphClockCmd
    usart6.o(.text) refers to stm32f4xx_usart.o(.text) for USART_DeInit
    usart6.o(.text) refers to stm32f4xx_rcc.o(.text) for RCC_AHB1PeriphClockCmd
    usart6.o(.text) refers to stm32f4xx_gpio.o(.text) for GPIO_PinAFConfig
    usart6.o(.text) refers to misc.o(.text) for NVIC_Init
    usart6.o(.text) refers to stm32f4xx_dma.o(.text) for DMA_DeInit
    usart6.o(.text) refers to circular_buffer.o(.text) for CircBuf_Init
    usart6.o(.text) refers to rt_memcpy_v6.o(.text) for __aeabi_memcpy
    usart6.o(.text) refers to usart6.o(.constdata) for .constdata
    usart6.o(.text) refers to usart6.o(.bss) for USART6_TxBuf
    delay.o(.text) refers to tasks.o(.text) for xTaskGetSchedulerState
    delay.o(.text) refers to port.o(.text) for xPortSysTickHandler
    delay.o(.text) refers to misc.o(.text) for SysTick_CLKSourceConfig
    delay.o(.text) refers to delay.o(.data) for fac_us
    usart.o(.rev16_text) refers (Special) to use_no_semi_2.o(.text) for __use_no_semihosting
    usart.o(.revsh_text) refers (Special) to use_no_semi_2.o(.text) for __use_no_semihosting
    usart.o(.text) refers (Special) to use_no_semi_2.o(.text) for __use_no_semihosting
    usart.o(.text) refers to stm32f4xx_rcc.o(.text) for RCC_AHB1PeriphClockCmd
    usart.o(.text) refers to stm32f4xx_gpio.o(.text) for GPIO_PinAFConfig
    usart.o(.text) refers to stm32f4xx_usart.o(.text) for USART_Init
    usart.o(.data) refers (Special) to use_no_semi_2.o(.text) for __use_no_semihosting
    startup_stm32f427_437xx.o(STACK) refers (Special) to heapauxi.o(.text) for __use_two_region_memory
    startup_stm32f427_437xx.o(HEAP) refers (Special) to heapauxi.o(.text) for __use_two_region_memory
    startup_stm32f427_437xx.o(RESET) refers (Special) to heapauxi.o(.text) for __use_two_region_memory
    startup_stm32f427_437xx.o(RESET) refers to startup_stm32f427_437xx.o(STACK) for __initial_sp
    startup_stm32f427_437xx.o(RESET) refers to startup_stm32f427_437xx.o(.text) for Reset_Handler
    startup_stm32f427_437xx.o(RESET) refers to stm32f4xx_it.o(.text) for NMI_Handler
    startup_stm32f427_437xx.o(RESET) refers to port.o(.emb_text) for SVC_Handler
    startup_stm32f427_437xx.o(RESET) refers to delay.o(.text) for SysTick_Handler
    startup_stm32f427_437xx.o(RESET) refers to ins_task.o(.text) for EXTI9_5_IRQHandler
    startup_stm32f427_437xx.o(RESET) refers to timer.o(.text) for TIM3_IRQHandler
    startup_stm32f427_437xx.o(RESET) refers to basicperipherals.o(.text) for TIM4_IRQHandler
    startup_stm32f427_437xx.o(RESET) refers to usart6.o(.text) for DMA2_Stream1_IRQHandler
    startup_stm32f427_437xx.o(.text) refers (Special) to heapauxi.o(.text) for __use_two_region_memory
    startup_stm32f427_437xx.o(.text) refers to system_stm32f4xx.o(.text) for SystemInit
    startup_stm32f427_437xx.o(.text) refers to __main.o(!!!main) for __main
    startup_stm32f427_437xx.o(.text) refers to startup_stm32f427_437xx.o(HEAP) for Heap_Mem
    startup_stm32f427_437xx.o(.text) refers to startup_stm32f427_437xx.o(STACK) for Stack_Mem
    stm32f4xx_gpio.o(.text) refers to stm32f4xx_rcc.o(.text) for RCC_AHB1PeriphResetCmd
    stm32f4xx_rcc.o(.text) refers to stm32f4xx_rcc.o(.data) for APBAHBPrescTable
    stm32f4xx_syscfg.o(.text) refers to stm32f4xx_rcc.o(.text) for RCC_APB2PeriphResetCmd
    stm32f4xx_usart.o(.text) refers to stm32f4xx_rcc.o(.text) for RCC_APB2PeriphResetCmd
    stm32f4xx_can.o(.text) refers to stm32f4xx_rcc.o(.text) for RCC_APB1PeriphResetCmd
    stm32f4xx_tim.o(.text) refers to stm32f4xx_rcc.o(.text) for RCC_APB2PeriphResetCmd
    stm32f4xx_spi.o(.text) refers to stm32f4xx_rcc.o(.text) for RCC_APB2PeriphResetCmd
    stm32f4xx_adc.o(.text) refers to stm32f4xx_rcc.o(.text) for RCC_APB2PeriphResetCmd
    heap_4.o(.text) refers to tasks.o(.text) for vTaskSuspendAll
    heap_4.o(.text) refers to heap_4.o(.data) for xStart
    heap_4.o(.text) refers to heap_4.o(.bss) for ucHeap
    port.o(.emb_text) refers to tasks.o(.text) for vTaskSwitchContext
    port.o(.emb_text) refers to tasks.o(.data) for pxCurrentTCB
    port.o(.text) refers to port.o(.emb_text) for __asm___6_port_c_39a90d8d__prvEnableVFP
    port.o(.text) refers to tasks.o(.text) for xTaskIncrementTick
    port.o(.text) refers to port.o(.data) for uxCriticalNesting
    port.o(.text) refers to system_stm32f4xx.o(.data) for SystemCoreClock
    event_groups.o(.text) refers to heap_4.o(.text) for pvPortMalloc
    event_groups.o(.text) refers to list.o(.text) for vListInitialise
    event_groups.o(.text) refers to tasks.o(.text) for vTaskSuspendAll
    event_groups.o(.text) refers to port.o(.text) for vPortEnterCritical
    queue.o(.text) refers to port.o(.text) for vPortEnterCritical
    queue.o(.text) refers to tasks.o(.text) for xTaskRemoveFromEventList
    queue.o(.text) refers to list.o(.text) for vListInitialise
    queue.o(.text) refers to heap_4.o(.text) for pvPortMalloc
    queue.o(.text) refers to rt_memcpy_v6.o(.text) for __aeabi_memcpy
    queue.o(.text) refers to queue.o(.bss) for xQueueRegistry
    stream_buffer.o(.text) refers to memset.o(.text) for memset
    stream_buffer.o(.text) refers to rt_memclr_w.o(.text) for __aeabi_memclr4
    stream_buffer.o(.text) refers to heap_4.o(.text) for pvPortMalloc
    stream_buffer.o(.text) refers to port.o(.text) for vPortEnterCritical
    stream_buffer.o(.text) refers to rt_memcpy_v6.o(.text) for __aeabi_memcpy
    stream_buffer.o(.text) refers to tasks.o(.text) for vTaskSetTimeOutState
    tasks.o(.text) refers to _printf_percent.o(.ARM.Collect$$_printf_percent$$00000000) for _printf_percent
    tasks.o(.text) refers to _printf_u.o(.ARM.Collect$$_printf_percent$$0000000A) for _printf_u
    tasks.o(.text) refers to _printf_c.o(.ARM.Collect$$_printf_percent$$00000013) for _printf_c
    tasks.o(.text) refers to _printf_dec.o(.text) for _printf_int_dec
    tasks.o(.text) refers to _printf_str.o(.text) for _printf_str
    tasks.o(.text) refers to list.o(.text) for vListInitialise
    tasks.o(.text) refers to port.o(.text) for vPortEnterCritical
    tasks.o(.text) refers to aeabi_memset.o(.text) for __aeabi_memset
    tasks.o(.text) refers to heap_4.o(.text) for pvPortMalloc
    tasks.o(.text) refers to tasks.o(.bss) for pxReadyTasksLists
    tasks.o(.text) refers to tasks.o(.data) for pxDelayedTaskList
    tasks.o(.text) refers to basicperipherals.o(.data) for FreeRTOSRunTimeTicks
    tasks.o(.text) refers to timers.o(.text) for xTimerCreateTimerTask
    tasks.o(.text) refers to basicperipherals.o(.text) for ConfigureTimeForTimeStats
    tasks.o(.text) refers to strlen.o(.text) for strlen
    tasks.o(.text) refers to strcpy.o(.text) for strcpy
    tasks.o(.text) refers to noretval__2sprintf.o(.text) for __2sprintf
    timers.o(.text) refers to list.o(.text) for vListInsert
    timers.o(.text) refers to tasks.o(.text) for xTaskGetSchedulerState
    timers.o(.text) refers to queue.o(.text) for xQueueGenericSend
    timers.o(.text) refers to heap_4.o(.text) for vPortFree
    timers.o(.text) refers to port.o(.text) for vPortEnterCritical
    timers.o(.text) refers to timers.o(.data) for pxOverflowTimerList
    timers.o(.text) refers to timers.o(.bss) for xActiveTimerList1
    calibrate_task.o(.text) refers to rt_memcpy_v6.o(.text) for __aeabi_memcpy
    calibrate_task.o(.text) refers to flash.o(.text) for flash_write_single_address
    calibrate_task.o(.text) refers to tasks.o(.text) for xTaskGetTickCount
    calibrate_task.o(.text) refers to adc.o(.text) for get_temprate
    calibrate_task.o(.text) refers to buzzer.o(.text) for buzzer_on
    calibrate_task.o(.text) refers to remotdbus.o(.text) for get_remote_control_point
    calibrate_task.o(.text) refers to calibrate_task.o(.bss) for cali_sensor
    calibrate_task.o(.text) refers to calibrate_task.o(.data) for i
    calibrate_task.o(.text) refers to calibrate_task.o(.constdata) for cali_name
    calibrate_task.o(.text) refers to ins_task.o(.text) for INS_set_cali_gyro
    calibrate_task.o(.text) refers to gimbal_task.o(.text) for set_cali_gimbal_hook
    calibrate_task.o(.data) refers to calibrate_task.o(.bss) for gimbal_cali
    calibrate_task.o(.data) refers to calibrate_task.o(.text) for cali_head_hook
    detect_task.o(.text) refers to basicperipherals.o(.text) for flow_led_off
    detect_task.o(.text) refers to rt_memcpy_w.o(.text) for __aeabi_memcpy4
    detect_task.o(.text) refers to tasks.o(.text) for xTaskGetTickCount
    detect_task.o(.text) refers to detect_task.o(.bss) for errorList
    detect_task.o(.text) refers to detect_task.o(.data) for last_num
    detect_task.o(.text) refers to detect_task.o(.constdata) for .constdata
    detect_task.o(.text) refers to remotdbus.o(.text) for RC_data_is_error
    gimbal_behaviour.o(.text) refers to f2d.o(x$fpl$f2d) for __aeabi_f2d
    gimbal_behaviour.o(.text) refers to fabs.o(i.__hardfp_fabs) for __hardfp_fabs
    gimbal_behaviour.o(.text) refers to dleqf.o(x$fpl$dleqf) for __aeabi_cdcmple
    gimbal_behaviour.o(.text) refers to detect_task.o(.text) for toe_is_error
    gimbal_behaviour.o(.text) refers to chassis_behaviour.o(.text) for isChassisSwing
    gimbal_behaviour.o(.text) refers to gimbal_behaviour.o(.data) for gimbal_behaviour
    gimbal_behaviour.o(.text) refers to user_lib.o(.text) for loop_fp32_constrain
    gimbal_behaviour.o(.text) refers to drleqf.o(x$fpl$drleqf) for __aeabi_cdrcmple
    gimbal_task.o(.text) refers to user_lib.o(.text) for loop_fp32_constrain
    gimbal_task.o(.text) refers to pid.o(.text) for PID_Calc
    gimbal_task.o(.text) refers to gimbal_task.o(.bss) for gimbal_control
    gimbal_task.o(.text) refers to gimbal_task.o(.data) for yaw_ins_int_1000
    gimbal_task.o(.text) refers to gimbal_behaviour.o(.text) for gimbal_behaviour_control_set
    gimbal_task.o(.text) refers to motorcan.o(.text) for get_Yaw_Gimbal_Motor_Measure_Point
    gimbal_task.o(.text) refers to ins_task.o(.text) for get_INS_angle_point
    gimbal_task.o(.text) refers to remotdbus.o(.text) for get_remote_control_point
    gimbal_task.o(.text) refers to gimbal_task.o(.constdata) for Yaw_speed_pid
    gimbal_task.o(.text) refers to auto_attacktask.o(.text) for GetAutoDataPoint
    gimbal_task.o(.text) refers to tasks.o(.text) for xTaskGetTickCount
    gimbal_task.o(.text) refers to shoot.o(.text) for shoot_init
    gimbal_task.o(.text) refers to detect_task.o(.text) for toe_is_error
    ins_task.o(.text) refers to calibrate_task.o(.text) for get_control_temperate
    ins_task.o(.text) refers to pid.o(.text) for PID_Calc
    ins_task.o(.text) refers to stm32f4xx_tim.o(.text) for TIM_SetCompare2
    ins_task.o(.text) refers to tasks.o(.text) for vTaskDelay
    ins_task.o(.text) refers to mpu6500driver.o(.text) for mpu6500_init
    ins_task.o(.text) refers to ist8310driver.o(.text) for ist8310_init
    ins_task.o(.text) refers to exit_init.o(.text) for GPIOB_Exti8_GPIO_Init
    ins_task.o(.text) refers to spi.o(.text) for SPI5_DMA_Init
    ins_task.o(.text) refers to stm32f4xx_spi.o(.text) for SPI_I2S_DMACmd
    ins_task.o(.text) refers to timer.o(.text) for TIM3_Init
    ins_task.o(.text) refers to ahrs.o(i.AHRS_init) for AHRS_init
    ins_task.o(.text) refers to ahrs.o(i.get_angle) for get_angle
    ins_task.o(.text) refers to ahrs.o(i.AHRS_update) for AHRS_update
    ins_task.o(.text) refers to ins_task.o(.data) for first_temperate
    ins_task.o(.text) refers to ins_task.o(.bss) for imuTempPid
    ins_task.o(.text) refers to ins_task.o(.constdata) for mpu6500_spi_DMA_txbuf
    ins_task.o(.text) refers to buzzer.o(.text) for buzzer_on
    ins_task.o(.text) refers to stm32f4xx_exti.o(.text) for EXTI_GetITStatus
    ins_task.o(.text) refers to mpu6500driver_middleware.o(.text) for mpu6500_SPI_NS_L
    ins_task.o(.text) refers to stm32f4xx_dma.o(.text) for DMA_GetFlagStatus
    start_task.o(.text) refers to _printf_percent.o(.ARM.Collect$$_printf_percent$$00000000) for _printf_percent
    start_task.o(.text) refers to _printf_d.o(.ARM.Collect$$_printf_percent$$00000009) for _printf_d
    start_task.o(.text) refers to _printf_f.o(.ARM.Collect$$_printf_percent$$00000003) for _printf_f
    start_task.o(.text) refers to _printf_dec.o(.text) for _printf_int_dec
    start_task.o(.text) refers to printf1.o(x$fpl$printf1) for _printf_fp_dec
    start_task.o(.text) refers to chassis_task.o(.text) for getChassisGive_current
    start_task.o(.text) refers to f2d.o(x$fpl$f2d) for __aeabi_f2d
    start_task.o(.text) refers to referee_dispatchtask.o(.text) for GetRealPower
    start_task.o(.text) refers to noretval__2printf.o(.text) for __2printf
    start_task.o(.text) refers to tasks.o(.text) for vTaskDelay
    start_task.o(.text) refers to mainfocus_usart.o(.text) for Send_MessToMainFocus
    start_task.o(.text) refers to gimbal_task.o(.text) for getPitchAngle
    start_task.o(.text) refers to port.o(.text) for vPortEnterCritical
    start_task.o(.text) refers to start_task.o(.data) for GIMBALTask_Handler
    start_task.o(.text) refers to ins_task.o(.text) for INSTask
    start_task.o(.text) refers to detect_task.o(.text) for DetectTask
    start_task.o(.text) refers to calibrate_task.o(.text) for calibrate_task
    auto_attacktask.o(.text) refers to stm32f4xx_usart.o(.text) for USART_GetFlagStatus
    auto_attacktask.o(.text) refers to auto_attacktask.o(.data) for SendBuff
    auto_attacktask.o(.text) refers to auto_attacktask.o(.bss) for AutoData
    chassis_behaviour.o(.text) refers to gimbal_behaviour.o(.text) for gimbal_cmd_to_chassis_stop
    chassis_behaviour.o(.text) refers to chassis_task.o(.text) for chassis_rc_to_control_vector
    chassis_behaviour.o(.text) refers to user_lib.o(.text) for loop_fp32_constrain
    chassis_behaviour.o(.text) refers to arm_sin_f32.o(.text) for arm_sin_f32
    chassis_behaviour.o(.text) refers to chassis_behaviour.o(.data) for chassis_behaviour_mode
    chassis_task.o(.text) refers to f2d.o(x$fpl$f2d) for __aeabi_f2d
    chassis_task.o(.text) refers to fabs.o(i.__hardfp_fabs) for __hardfp_fabs
    chassis_task.o(.text) refers to d2f_clz.o(x$fpl$d2f) for __aeabi_d2f
    chassis_task.o(.text) refers to pid.o(.text) for PID_Calc
    chassis_task.o(.text) refers to chassis_behaviour.o(.text) for chassis_behaviour_control_set
    chassis_task.o(.text) refers to arm_sin_f32.o(.text) for arm_sin_f32
    chassis_task.o(.text) refers to arm_cos_f32.o(.text) for arm_cos_f32
    chassis_task.o(.text) refers to user_lib.o(.text) for loop_fp32_constrain
    chassis_task.o(.text) refers to gimbal_behaviour.o(.text) for IsGimbalMotionless
    chassis_task.o(.text) refers to referee_dispatchtask.o(.text) for GetRealPower
    chassis_task.o(.text) refers to remotdbus.o(.text) for get_remote_control_point
    chassis_task.o(.text) refers to ins_task.o(.text) for get_INS_angle_point
    chassis_task.o(.text) refers to gimbal_task.o(.text) for get_yaw_motor_point
    chassis_task.o(.text) refers to motorcan.o(.text) for get_Chassis_Motor_Measure_Point
    chassis_task.o(.text) refers to tasks.o(.text) for vTaskDelay
    chassis_task.o(.text) refers to detect_task.o(.text) for toe_is_error
    chassis_task.o(.text) refers to chassis_task.o(.constdata) for motor_speed_pid
    chassis_task.o(.text) refers to chassis_task.o(.bss) for chassis_move
    shoot.o(.text) refers to stm32f4xx_gpio.o(.text) for GPIO_ReadInputDataBit
    shoot.o(.text) refers to shoot.o(.bss) for speed_fliter_2
    shoot.o(.text) refers to shoot.o(.constdata) for fliter_num
    shoot.o(.text) refers to shoot.o(.data) for shoot_rc
    shoot.o(.text) refers to remotdbus.o(.text) for get_remote_control_point
    shoot.o(.text) refers to motorcan.o(.text) for get_shoot_Motor_Measure_Point
    shoot.o(.text) refers to referee_dispatchtask.o(.text) for GetRefereeDataPoint
    shoot.o(.text) refers to pid.o(.text) for PID_Init
    shoot.o(.text) refers to user_lib.o(.text) for ramp_init
    shoot.o(.text) refers to gimbal_behaviour.o(.text) for gimbal_cmd_to_shoot_stop
    shoot.o(.text) refers to frictionmoterpwm.o(.text) for fric_off
    shoot.o(.text) refers to basicperipherals.o(.text) for laser_off
    shoot.o(.text) refers to tasks.o(.text) for xTaskGetTickCount
    shoot.o(.text) refers to f2d.o(x$fpl$f2d) for __aeabi_f2d
    shoot.o(.text) refers to fabs.o(i.__hardfp_fabs) for __hardfp_fabs
    shoot.o(.text) refers to dleqf.o(x$fpl$dleqf) for __aeabi_cdcmple
    shoot.o(.text) refers to drleqf.o(x$fpl$drleqf) for __aeabi_cdrcmple
    circular_buffer.o(.text) refers to calloc.o(.text) for calloc
    circular_buffer.o(.text) refers to h1_free.o(.text) for free
    circular_buffer.o(.text) refers to rt_memcpy_v6.o(.text) for __aeabi_memcpy
    referee_dispatchtask.o(.text) refers to usart6.o(.text) for USART6_GetDataCount
    referee_dispatchtask.o(.text) refers to tasks.o(.text) for vTaskDelay
    referee_dispatchtask.o(.text) refers to rt_memcpy_v6.o(.text) for __aeabi_memcpy
    referee_dispatchtask.o(.text) refers to referee_dispatchtask.o(.constdata) for wCRC_Table
    referee_dispatchtask.o(.text) refers to referee_dispatchtask.o(.data) for CRC_INIT
    referee_dispatchtask.o(.text) refers to referee_dispatchtask.o(.bss) for Transmission_BufferOfUsart6
    ahrs_middleware.o(.text) refers to arm_sin_f32.o(.text) for arm_sin_f32
    ahrs_middleware.o(.text) refers to arm_cos_f32.o(.text) for arm_cos_f32
    ahrs_middleware.o(.text) refers to tanf.o(i.__hardfp_tanf) for __hardfp_tanf
    ahrs_middleware.o(.text) refers to asinf.o(i.__hardfp_asinf) for __hardfp_asinf
    ahrs_middleware.o(.text) refers to acosf.o(i.__hardfp_acosf) for __hardfp_acosf
    ahrs_middleware.o(.text) refers to atan2f.o(i.__hardfp_atan2f) for __hardfp_atan2f
    ist8310driver.o(.text) refers to ist8310driver_middleware.o(.text) for ist8310_GPIO_init
    ist8310driver.o(.text) refers to ist8310driver.o(.constdata) for ist8310_write_reg_data_error
    ist8310driver_middleware.o(.text) refers to stm32f4xx_rcc.o(.text) for RCC_AHB1PeriphClockCmd
    ist8310driver_middleware.o(.text) refers to stm32f4xx_gpio.o(.text) for GPIO_Init
    ist8310driver_middleware.o(.text) refers to mpu6500driver_middleware.o(.text) for mpu6500_write_muli_reg
    ist8310driver_middleware.o(.text) refers to delay.o(.text) for delay_us
    mpu6500driver.o(.text) refers to mpu6500driver_middleware.o(.text) for mpu6500_GPIO_init
    mpu6500driver.o(.text) refers to mpu6500driver.o(.constdata) for write_mpu6500_reg_data_error
    mpu6500driver.o(.text) refers to mpu6500driver.o(.data) for motion_time
    mpu6500driver_middleware.o(.text) refers to stm32f4xx_rcc.o(.text) for RCC_AHB1PeriphClockCmd
    mpu6500driver_middleware.o(.text) refers to stm32f4xx_gpio.o(.text) for GPIO_Init
    mpu6500driver_middleware.o(.text) refers to spi.o(.text) for SPI5Init
    mpu6500driver_middleware.o(.text) refers to delay.o(.text) for delay_ms
    mpu6500driver_middleware.o(.text) refers to stm32f4xx_spi.o(.text) for SPI_I2S_GetFlagStatus
    ahrs.o(i.AHRS_init) refers to ahrs_middleware.o(.text) for AHRS_get_height
    ahrs.o(i.AHRS_init) refers to ahrs.o(i.angle_to_quat) for angle_to_quat
    ahrs.o(i.AHRS_init) refers to ahrs.o(.data) for local_hight
    ahrs.o(i.AHRS_update) refers to ahrs.o(i.accel_comple_filter) for accel_comple_filter
    ahrs.o(i.AHRS_update) refers to rt_memclr_w.o(.text) for __aeabi_memclr4
    ahrs.o(i.AHRS_update) refers to ahrs.o(i.update_w) for update_w
    ahrs.o(i.AHRS_update) refers to ahrs.o(i.quat_normalization) for quat_normalization
    ahrs.o(i.accel_comple_filter) refers to ahrs.o(i.accel_update_kp_ki) for accel_update_kp_ki
    ahrs.o(i.accel_comple_filter) refers to ahrs_middleware.o(.text) for AHRS_invSqrt
    ahrs.o(i.accel_comple_filter) refers to ahrs.o(.constdata) for .constdata
    ahrs.o(i.accel_update_kp_ki) refers to ahrs_middleware.o(.text) for AHRS_invSqrt
    ahrs.o(i.accel_update_kp_ki) refers to ahrs.o(i.AHRS_fabs) for AHRS_fabs
    ahrs.o(i.accel_update_kp_ki) refers to ahrs.o(.data) for carrier_gravity
    ahrs.o(i.angle_to_quat) refers to ahrs_middleware.o(.text) for AHRS_cosf
    ahrs.o(i.get_angle) refers to ahrs_middleware.o(.text) for AHRS_asinf
    ahrs.o(i.get_carrier_gravity) refers to ahrs.o(.data) for carrier_gravity
    ahrs.o(i.get_pitch) refers to ahrs_middleware.o(.text) for AHRS_asinf
    ahrs.o(i.get_roll) refers to ahrs_middleware.o(.text) for AHRS_atan2f
    ahrs.o(i.get_yaw) refers to ahrs_middleware.o(.text) for AHRS_atan2f
    ahrs.o(i.quat_normalization) refers to ahrs_middleware.o(.text) for AHRS_invSqrt
    arm_cos_f32.o(.text) refers to arm_common_tables.o(.constdata) for sinTable_f32
    arm_sin_f32.o(.text) refers to arm_common_tables.o(.constdata) for sinTable_f32
    use_no_semi_2.o(.text) refers (Special) to use_no_semi.o(.text) for __use_no_semihosting_swi
    free.o(.text) refers (Special) to hguard.o(.text) for __heap$guard
    free.o(.text) refers to rt_heap_descriptor_intlibspace.o(.text) for __rt_heap_descriptor
    free.o(.text) refers to heapstubs.o(.text) for __Heap_Free
    calloc.o(.text) refers to h1_alloc.o(.text) for malloc
    calloc.o(.text) refers to rt_memclr.o(.text) for __aeabi_memclr
    h1_free.o(.text) refers to rt_heap_descriptor_intlibspace.o(.text) for __rt_heap_descriptor
    h1_free_mt.o(.text) refers to rt_heap_descriptor_intlibspace.o(.text) for __rt_heap_descriptor
    heap2.o(i._FDIterate) refers to heap2.o(.conststring) for .conststring
    heap2.o(i.___Heap_ProvideMemory$realtime) refers to fdtree.o(i._FDTree_Delete) for _FDTree_Delete
    heap2.o(i.___Heap_ProvideMemory$realtime) refers to fdtree.o(i._FDTree_Insert) for _FDTree_Insert
    heap2.o(i.___Heap_Stats$realtime) refers to heap2.o(i._Heap2_StatsIterate) for _Heap2_StatsIterate
    heap2.o(i.___Heap_Valid$realtime) refers to heap2.o(i._FDIterate) for _FDIterate
    heap2.o(i.___Heap_Valid$realtime) refers to heap2.o(.conststring) for .conststring
    heap2.o(i._free$realtime) refers to rt_heap_descriptor_intlibspace.o(.text) for __rt_heap_descriptor
    heap2.o(i._free$realtime) refers to fdtree.o(i._FDTree_Delete) for _FDTree_Delete
    heap2.o(i._free$realtime) refers to fdtree.o(i._FDTree_Insert) for _FDTree_Insert
    heap2.o(i._malloc$realtime) refers to rt_heap_descriptor_intlibspace.o(.text) for __rt_heap_descriptor
    heap2.o(i._malloc$realtime) refers to fdtree.o(i._FDTree_FindFirst) for _FDTree_FindFirst
    heap2.o(i._malloc$realtime) refers to init_alloc.o(.text) for __Heap_Full
    heap2.o(i._malloc$realtime) refers to fdtree.o(i._FDTree_RemoveNode) for _FDTree_RemoveNode
    heap2.o(i._malloc$realtime) refers to fdtree.o(i._FDTree_Insert) for _FDTree_Insert
    heap2.o(i._posix_memalign$realtime) refers to rt_heap_descriptor_intlibspace.o(.text) for __rt_heap_descriptor
    heap2.o(i._posix_memalign$realtime) refers to fdtree.o(i._FDTree_FindFirst) for _FDTree_FindFirst
    heap2.o(i._posix_memalign$realtime) refers to init_alloc.o(.text) for __Heap_Full
    heap2.o(i._posix_memalign$realtime) refers to fdtree.o(i._FDTree_RemoveNode) for _FDTree_RemoveNode
    heap2.o(i._posix_memalign$realtime) refers to fdtree.o(i._FDTree_Insert) for _FDTree_Insert
    heap2.o(i._realloc$realtime) refers to rt_heap_descriptor_intlibspace.o(.text) for __rt_heap_descriptor
    heap2.o(i._realloc$realtime) refers to fdtree.o(i._FDTree_Insert) for _FDTree_Insert
    heap2.o(i._realloc$realtime) refers to h1_free.o(.text) for free
    heap2.o(i._realloc$realtime) refers to h1_alloc.o(.text) for malloc
    heap2.o(i._realloc$realtime) refers to fdtree.o(i._FDTree_Delete) for _FDTree_Delete
    heap2.o(i._realloc$realtime) refers to rt_memcpy_w.o(.text) for __aeabi_memcpy4
    heap2mt.o(i._FDIterate) refers to heap2mt.o(.conststring) for .conststring
    heap2mt.o(i.___Heap_Initialize$realtime$concurrent) refers to mutex_dummy.o(.text) for _mutex_initialize
    heap2mt.o(i.___Heap_ProvideMemory$realtime$concurrent) refers to fdtree.o(i._FDTree_Delete) for _FDTree_Delete
    heap2mt.o(i.___Heap_ProvideMemory$realtime$concurrent) refers to fdtree.o(i._FDTree_Insert) for _FDTree_Insert
    heap2mt.o(i.___Heap_Stats$realtime$concurrent) refers to heap2mt.o(i._Heap2_StatsIterate) for _Heap2_StatsIterate
    heap2mt.o(i.___Heap_Valid$realtime$concurrent) refers to heap2mt.o(i._FDIterate) for _FDIterate
    heap2mt.o(i.___Heap_Valid$realtime$concurrent) refers to heap2mt.o(.conststring) for .conststring
    heap2mt.o(i._free$realtime$concurrent) refers to rt_heap_descriptor_intlibspace.o(.text) for __rt_heap_descriptor
    heap2mt.o(i._free$realtime$concurrent) refers to fdtree.o(i._FDTree_Delete) for _FDTree_Delete
    heap2mt.o(i._free$realtime$concurrent) refers to fdtree.o(i._FDTree_Insert) for _FDTree_Insert
    heap2mt.o(i._malloc$realtime$concurrent) refers to rt_heap_descriptor_intlibspace.o(.text) for __rt_heap_descriptor
    heap2mt.o(i._malloc$realtime$concurrent) refers to fdtree.o(i._FDTree_FindFirst) for _FDTree_FindFirst
    heap2mt.o(i._malloc$realtime$concurrent) refers to init_alloc.o(.text) for __Heap_Full
    heap2mt.o(i._malloc$realtime$concurrent) refers to fdtree.o(i._FDTree_RemoveNode) for _FDTree_RemoveNode
    heap2mt.o(i._malloc$realtime$concurrent) refers to fdtree.o(i._FDTree_Insert) for _FDTree_Insert
    heap2mt.o(i._posix_memalign$realtime$concurrent) refers to rt_heap_descriptor_intlibspace.o(.text) for __rt_heap_descriptor
    heap2mt.o(i._posix_memalign$realtime$concurrent) refers to fdtree.o(i._FDTree_FindFirst) for _FDTree_FindFirst
    heap2mt.o(i._posix_memalign$realtime$concurrent) refers to init_alloc.o(.text) for __Heap_Full
    heap2mt.o(i._posix_memalign$realtime$concurrent) refers to fdtree.o(i._FDTree_RemoveNode) for _FDTree_RemoveNode
    heap2mt.o(i._posix_memalign$realtime$concurrent) refers to fdtree.o(i._FDTree_Insert) for _FDTree_Insert
    heap2mt.o(i._realloc$realtime$concurrent) refers to rt_heap_descriptor_intlibspace.o(.text) for __rt_heap_descriptor
    heap2mt.o(i._realloc$realtime$concurrent) refers to fdtree.o(i._FDTree_Insert) for _FDTree_Insert
    heap2mt.o(i._realloc$realtime$concurrent) refers to h1_free.o(.text) for free
    heap2mt.o(i._realloc$realtime$concurrent) refers to h1_alloc.o(.text) for malloc
    heap2mt.o(i._realloc$realtime$concurrent) refers to fdtree.o(i._FDTree_Delete) for _FDTree_Delete
    heap2mt.o(i._realloc$realtime$concurrent) refers to rt_memcpy_w.o(.text) for __aeabi_memcpy4
    __2printf.o(.text) refers to _printf_char_file.o(.text) for _printf_char_file
    __2printf.o(.text) refers to usart.o(.data) for __stdout
    __2sprintf.o(.text) refers to _printf_char_common.o(.text) for _printf_char_common
    __2sprintf.o(.text) refers to _sputc.o(.text) for _sputc
    noretval__2printf.o(.text) refers to _printf_char_file.o(.text) for _printf_char_file
    noretval__2printf.o(.text) refers to usart.o(.data) for __stdout
    noretval__2sprintf.o(.text) refers to _printf_char_common.o(.text) for _printf_char_common
    noretval__2sprintf.o(.text) refers to _sputc.o(.text) for _sputc
    __printf.o(.text) refers to _printf_percent.o(.ARM.Collect$$_printf_percent$$00000000) for _printf_percent
    _printf_str.o(.text) refers (Special) to _printf_char.o(.text) for _printf_cs_common
    _printf_dec.o(.text) refers to _printf_intcommon.o(.text) for _printf_int_common
    __printf_flags.o(.text) refers to _printf_percent.o(.ARM.Collect$$_printf_percent$$00000000) for _printf_percent
    __printf_flags.o(.text) refers to __printf_flags.o(.constdata) for .constdata
    __printf_ss.o(.text) refers to _printf_percent.o(.ARM.Collect$$_printf_percent$$00000000) for _printf_percent
    __printf_flags_ss.o(.text) refers to _printf_percent.o(.ARM.Collect$$_printf_percent$$00000000) for _printf_percent
    __printf_flags_ss.o(.text) refers to __printf_flags_ss.o(.constdata) for .constdata
    __printf_wp.o(.text) refers to __printf_wp.o(i._is_digit) for _is_digit
    __printf_wp.o(.text) refers to _printf_percent.o(.ARM.Collect$$_printf_percent$$00000000) for _printf_percent
    __printf_flags_wp.o(.text) refers to __printf_wp.o(i._is_digit) for _is_digit
    __printf_flags_wp.o(.text) refers to _printf_percent.o(.ARM.Collect$$_printf_percent$$00000000) for _printf_percent
    __printf_flags_wp.o(.text) refers to __printf_flags_wp.o(.constdata) for .constdata
    __printf_ss_wp.o(.text) refers to __printf_wp.o(i._is_digit) for _is_digit
    __printf_ss_wp.o(.text) refers to _printf_percent.o(.ARM.Collect$$_printf_percent$$00000000) for _printf_percent
    __printf_flags_ss_wp.o(.text) refers to __printf_wp.o(i._is_digit) for _is_digit
    __printf_flags_ss_wp.o(.text) refers to _printf_percent.o(.ARM.Collect$$_printf_percent$$00000000) for _printf_percent
    __printf_flags_ss_wp.o(.text) refers to __printf_flags_ss_wp.o(.constdata) for .constdata
    _printf_c.o(.ARM.Collect$$_printf_percent$$00000013) refers (Weak) to _printf_char.o(.text) for _printf_char
    _printf_d.o(.ARM.Collect$$_printf_percent$$00000009) refers (Weak) to _printf_dec.o(.text) for _printf_int_dec
    _printf_u.o(.ARM.Collect$$_printf_percent$$0000000A) refers (Weak) to _printf_dec.o(.text) for _printf_int_dec
    _printf_f.o(.ARM.Collect$$_printf_percent$$00000003) refers (Weak) to printf1.o(x$fpl$printf1) for _printf_fp_dec
    _printf_percent.o(.ARM.Collect$$_printf_percent$$00000000) refers (Special) to _printf_percent_end.o(.ARM.Collect$$_printf_percent$$00000017) for _printf_percent_end
    rt_memcpy_v6.o(.text) refers to rt_memcpy_w.o(.text) for __aeabi_memcpy4
    memset.o(.text) refers to rt_memclr.o(.text) for _memset
    aeabi_memset.o(.text) refers to rt_memclr.o(.text) for _memset
    __main.o(!!!main) refers to __rtentry.o(.ARM.Collect$$rtentry$$00000000) for __rt_entry
    d2f_clz.o(x$fpl$d2f) refers (Special) to usenofp.o(x$fpl$usenofp) for __I$use$fp
    d2f_clz.o(x$fpl$d2f) refers to except.o(x$fpl$exception) for __fpl_exception
    d2f_clz.o(x$fpl$d2f) refers to fretinf.o(x$fpl$fretinf) for __fpl_fretinf
    d2f_clz.o(x$fpl$d2f) refers to dnaninf.o(x$fpl$dnaninf) for __fpl_dnaninf
    d2f_clz.o(x$fpl$d2f) refers to trapv.o(x$fpl$trapveneer) for _fp_trapveneer
    d2f_clz.o(x$fpl$d2f) refers to funder_clz.o(x$fpl$funder) for __funder
    dleqf.o(x$fpl$dleqf) refers (Special) to usenofp.o(x$fpl$usenofp) for __I$use$fp
    dleqf.o(x$fpl$dleqf) refers to dnaninf.o(x$fpl$dnaninf) for __fpl_dnaninf
    dleqf.o(x$fpl$dleqf) refers to dcmpi.o(x$fpl$dcmpinf) for __fpl_dcmp_Inf
    drleqf.o(x$fpl$drleqf) refers (Special) to usenofp.o(x$fpl$usenofp) for __I$use$fp
    drleqf.o(x$fpl$drleqf) refers to dleqf.o(x$fpl$dleqf) for __fpl_dcmple_InfNaN
    f2d.o(x$fpl$f2d) refers (Special) to usenofp.o(x$fpl$usenofp) for __I$use$fp
    f2d.o(x$fpl$f2d) refers to dflt_clz.o(x$fpl$dfltn) for __dflt_normalise
    f2d.o(x$fpl$f2d) refers to fnaninf.o(x$fpl$fnaninf) for __fpl_fnaninf
    f2d.o(x$fpl$f2d) refers to dretinf.o(x$fpl$dretinf) for __fpl_dretinf
    printf1.o(x$fpl$printf1) refers to _printf_fp_dec.o(.text) for _printf_fp_dec_real
    acosf.o(i.__hardfp_acosf) refers (Special) to usenofp.o(x$fpl$usenofp) for __I$use$fp
    acosf.o(i.__hardfp_acosf) refers to sqrtf_full.o(i.sqrtf) for sqrtf
    acosf.o(i.__hardfp_acosf) refers to funder.o(i.__mathlib_flt_infnan) for __mathlib_flt_infnan
    acosf.o(i.__hardfp_acosf) refers to _rserrno.o(.text) for __set_errno
    acosf.o(i.__hardfp_acosf) refers to funder.o(i.__mathlib_flt_invalid) for __mathlib_flt_invalid
    acosf.o(i.__softfp_acosf) refers (Special) to usenofp.o(x$fpl$usenofp) for __I$use$fp
    acosf.o(i.__softfp_acosf) refers to acosf.o(i.__hardfp_acosf) for __hardfp_acosf
    acosf.o(i.acosf) refers (Special) to usenofp.o(x$fpl$usenofp) for __I$use$fp
    acosf.o(i.acosf) refers to acosf.o(i.__hardfp_acosf) for __hardfp_acosf
    acosf_x.o(i.____hardfp_acosf$lsc) refers (Special) to usenofp.o(x$fpl$usenofp) for __I$use$fp
    acosf_x.o(i.____hardfp_acosf$lsc) refers to sqrtf_full.o(i.sqrtf) for sqrtf
    acosf_x.o(i.____hardfp_acosf$lsc) refers to funder.o(i.__mathlib_flt_infnan) for __mathlib_flt_infnan
    acosf_x.o(i.____hardfp_acosf$lsc) refers to _rserrno.o(.text) for __set_errno
    acosf_x.o(i.____softfp_acosf$lsc) refers (Special) to usenofp.o(x$fpl$usenofp) for __I$use$fp
    acosf_x.o(i.____softfp_acosf$lsc) refers to acosf_x.o(i.____hardfp_acosf$lsc) for ____hardfp_acosf$lsc
    acosf_x.o(i.__acosf$lsc) refers (Special) to usenofp.o(x$fpl$usenofp) for __I$use$fp
    acosf_x.o(i.__acosf$lsc) refers to acosf_x.o(i.____hardfp_acosf$lsc) for ____hardfp_acosf$lsc
    asinf.o(i.__hardfp_asinf) refers (Special) to usenofp.o(x$fpl$usenofp) for __I$use$fp
    asinf.o(i.__hardfp_asinf) refers to sqrtf_full.o(i.sqrtf) for sqrtf
    asinf.o(i.__hardfp_asinf) refers to fpclassifyf.o(i.__ARM_fpclassifyf) for __ARM_fpclassifyf
    asinf.o(i.__hardfp_asinf) refers to funder.o(i.__mathlib_flt_underflow) for __mathlib_flt_underflow
    asinf.o(i.__hardfp_asinf) refers to funder.o(i.__mathlib_flt_infnan) for __mathlib_flt_infnan
    asinf.o(i.__hardfp_asinf) refers to _rserrno.o(.text) for __set_errno
    asinf.o(i.__hardfp_asinf) refers to funder.o(i.__mathlib_flt_invalid) for __mathlib_flt_invalid
    asinf.o(i.__softfp_asinf) refers (Special) to usenofp.o(x$fpl$usenofp) for __I$use$fp
    asinf.o(i.__softfp_asinf) refers to asinf.o(i.__hardfp_asinf) for __hardfp_asinf
    asinf.o(i.asinf) refers (Special) to usenofp.o(x$fpl$usenofp) for __I$use$fp
    asinf.o(i.asinf) refers to asinf.o(i.__hardfp_asinf) for __hardfp_asinf
    asinf_x.o(i.____hardfp_asinf$lsc) refers (Special) to usenofp.o(x$fpl$usenofp) for __I$use$fp
    asinf_x.o(i.____hardfp_asinf$lsc) refers to sqrtf_full.o(i.sqrtf) for sqrtf
    asinf_x.o(i.____hardfp_asinf$lsc) refers to funder.o(i.__mathlib_flt_infnan) for __mathlib_flt_infnan
    asinf_x.o(i.____hardfp_asinf$lsc) refers to _rserrno.o(.text) for __set_errno
    asinf_x.o(i.____softfp_asinf$lsc) refers (Special) to usenofp.o(x$fpl$usenofp) for __I$use$fp
    asinf_x.o(i.____softfp_asinf$lsc) refers to asinf_x.o(i.____hardfp_asinf$lsc) for ____hardfp_asinf$lsc
    asinf_x.o(i.__asinf$lsc) refers (Special) to usenofp.o(x$fpl$usenofp) for __I$use$fp
    asinf_x.o(i.__asinf$lsc) refers to asinf_x.o(i.____hardfp_asinf$lsc) for ____hardfp_asinf$lsc
    atan2f.o(i.__hardfp_atan2f) refers (Special) to usenofp.o(x$fpl$usenofp) for __I$use$fp
    atan2f.o(i.__hardfp_atan2f) refers to fpclassifyf.o(i.__ARM_fpclassifyf) for __ARM_fpclassifyf
    atan2f.o(i.__hardfp_atan2f) refers to funder.o(i.__mathlib_flt_underflow) for __mathlib_flt_underflow
    atan2f.o(i.__hardfp_atan2f) refers to funder.o(i.__mathlib_flt_infnan2) for __mathlib_flt_infnan2
    atan2f.o(i.__softfp_atan2f) refers (Special) to usenofp.o(x$fpl$usenofp) for __I$use$fp
    atan2f.o(i.__softfp_atan2f) refers to atan2f.o(i.__hardfp_atan2f) for __hardfp_atan2f
    atan2f.o(i.atan2f) refers (Special) to usenofp.o(x$fpl$usenofp) for __I$use$fp
    atan2f.o(i.atan2f) refers to atan2f.o(i.__hardfp_atan2f) for __hardfp_atan2f
    atan2f_x.o(i.____hardfp_atan2f$lsc) refers (Special) to usenofp.o(x$fpl$usenofp) for __I$use$fp
    atan2f_x.o(i.____hardfp_atan2f$lsc) refers to funder.o(i.__mathlib_flt_infnan2) for __mathlib_flt_infnan2
    atan2f_x.o(i.____hardfp_atan2f$lsc) refers to _rserrno.o(.text) for __set_errno
    atan2f_x.o(i.____softfp_atan2f$lsc) refers (Special) to usenofp.o(x$fpl$usenofp) for __I$use$fp
    atan2f_x.o(i.____softfp_atan2f$lsc) refers to atan2f_x.o(i.____hardfp_atan2f$lsc) for ____hardfp_atan2f$lsc
    atan2f_x.o(i.__atan2f$lsc) refers (Special) to usenofp.o(x$fpl$usenofp) for __I$use$fp
    atan2f_x.o(i.__atan2f$lsc) refers to atan2f_x.o(i.____hardfp_atan2f$lsc) for ____hardfp_atan2f$lsc
    fabs.o(i.__hardfp_fabs) refers (Special) to usenofp.o(x$fpl$usenofp) for __I$use$fp
    fabs.o(i.__softfp_fabs) refers (Special) to usenofp.o(x$fpl$usenofp) for __I$use$fp
    fabs.o(i.fabs) refers (Special) to usenofp.o(x$fpl$usenofp) for __I$use$fp
    tanf.o(i.__hardfp_tanf) refers (Special) to usenofp.o(x$fpl$usenofp) for __I$use$fp
    tanf.o(i.__hardfp_tanf) refers to rredf.o(i.__mathlib_rredf2) for __mathlib_rredf2
    tanf.o(i.__hardfp_tanf) refers to fpclassifyf.o(i.__ARM_fpclassifyf) for __ARM_fpclassifyf
    tanf.o(i.__hardfp_tanf) refers to funder.o(i.__mathlib_flt_underflow) for __mathlib_flt_underflow
    tanf.o(i.__hardfp_tanf) refers to _rserrno.o(.text) for __set_errno
    tanf.o(i.__hardfp_tanf) refers to funder.o(i.__mathlib_flt_invalid) for __mathlib_flt_invalid
    tanf.o(i.__hardfp_tanf) refers to funder.o(i.__mathlib_flt_infnan) for __mathlib_flt_infnan
    tanf.o(i.__softfp_tanf) refers (Special) to usenofp.o(x$fpl$usenofp) for __I$use$fp
    tanf.o(i.__softfp_tanf) refers to tanf.o(i.__hardfp_tanf) for __hardfp_tanf
    tanf.o(i.tanf) refers (Special) to usenofp.o(x$fpl$usenofp) for __I$use$fp
    tanf.o(i.tanf) refers to tanf.o(i.__hardfp_tanf) for __hardfp_tanf
    tanf_x.o(i.____hardfp_tanf$lsc) refers (Special) to usenofp.o(x$fpl$usenofp) for __I$use$fp
    tanf_x.o(i.____hardfp_tanf$lsc) refers to rredf.o(i.__mathlib_rredf2) for __mathlib_rredf2
    tanf_x.o(i.____hardfp_tanf$lsc) refers to _rserrno.o(.text) for __set_errno
    tanf_x.o(i.____hardfp_tanf$lsc) refers to funder.o(i.__mathlib_flt_infnan) for __mathlib_flt_infnan
    tanf_x.o(i.____softfp_tanf$lsc) refers (Special) to usenofp.o(x$fpl$usenofp) for __I$use$fp
    tanf_x.o(i.____softfp_tanf$lsc) refers to tanf_x.o(i.____hardfp_tanf$lsc) for ____hardfp_tanf$lsc
    tanf_x.o(i.__tanf$lsc) refers (Special) to usenofp.o(x$fpl$usenofp) for __I$use$fp
    tanf_x.o(i.__tanf$lsc) refers to tanf_x.o(i.____hardfp_tanf$lsc) for ____hardfp_tanf$lsc
    __rtentry.o(.ARM.Collect$$rtentry$$00000000) refers (Special) to __rtentry2.o(.ARM.Collect$$rtentry$$0000000A) for __rt_entry_li
    __rtentry.o(.ARM.Collect$$rtentry$$00000000) refers (Special) to __rtentry2.o(.ARM.Collect$$rtentry$$0000000D) for __rt_entry_main
    __rtentry.o(.ARM.Collect$$rtentry$$00000000) refers (Special) to __rtentry2.o(.ARM.Collect$$rtentry$$0000000C) for __rt_entry_postli_1
    __rtentry.o(.ARM.Collect$$rtentry$$00000000) refers (Special) to __rtentry2.o(.ARM.Collect$$rtentry$$00000009) for __rt_entry_postsh_1
    __rtentry.o(.ARM.Collect$$rtentry$$00000000) refers (Special) to __rtentry2.o(.ARM.Collect$$rtentry$$00000002) for __rt_entry_presh_1
    __rtentry.o(.ARM.Collect$$rtentry$$00000000) refers (Special) to __rtentry4.o(.ARM.Collect$$rtentry$$00000004) for __rt_entry_sh
    rt_heap_descriptor.o(.text) refers to rt_heap_descriptor.o(.bss) for __rt_heap_descriptor_data
    rt_heap_descriptor_intlibspace.o(.text) refers to libspace.o(.bss) for __libspace_start
    init_alloc.o(.text) refers (Special) to hguard.o(.text) for __heap$guard
    init_alloc.o(.text) refers (Special) to libinit2.o(.ARM.Collect$$libinit$$00000005) for __rt_lib_init_heap_2
    init_alloc.o(.text) refers (Special) to maybetermalloc1.o(.emb_text) for _maybe_terminate_alloc
    init_alloc.o(.text) refers to h1_extend.o(.text) for __Heap_ProvideMemory
    init_alloc.o(.text) refers to defsig_rtmem_outer.o(.text) for __rt_SIGRTMEM
    init_alloc.o(.text) refers to rt_heap_descriptor_intlibspace.o(.text) for __rt_heap_descriptor
    init_alloc.o(.text) refers to h1_init.o(.text) for __Heap_Initialize
    malloc.o(.text) refers (Special) to hguard.o(.text) for __heap$guard
    malloc.o(.text) refers (Special) to init_alloc.o(.text) for _init_alloc
    malloc.o(.text) refers to rt_heap_descriptor_intlibspace.o(.text) for __rt_heap_descriptor
    malloc.o(.text) refers to heapstubs.o(.text) for __Heap_Alloc
    h1_alloc.o(.text) refers (Special) to h1_init.o(.text) for __Heap_Initialize
    h1_alloc.o(.text) refers to rt_heap_descriptor_intlibspace.o(.text) for __rt_heap_descriptor
    h1_alloc.o(.text) refers to init_alloc.o(.text) for __Heap_Full
    h1_alloc_mt.o(.text) refers (Special) to h1_init.o(.text) for __Heap_Initialize
    h1_alloc_mt.o(.text) refers to init_alloc.o(.text) for __Heap_Full
    h1_alloc_mt.o(.text) refers to rt_heap_descriptor_intlibspace.o(.text) for __rt_heap_descriptor
    _rserrno.o(.text) refers to rt_errno_addr_intlibspace.o(.text) for __aeabi_errno_addr
    _printf_fp_dec.o(.text) refers (Special) to usenofp.o(x$fpl$usenofp) for __I$use$fp
    _printf_fp_dec.o(.text) refers (Special) to lc_numeric_c.o(locale$$code) for _get_lc_numeric
    _printf_fp_dec.o(.text) refers to istatus.o(x$fpl$ieeestatus) for __ieee_status
    _printf_fp_dec.o(.text) refers to bigflt0.o(.text) for _btod_etento
    _printf_fp_dec.o(.text) refers to btod.o(CL$$btod_d2e) for _btod_d2e
    _printf_fp_dec.o(.text) refers to btod.o(CL$$btod_ediv) for _btod_ediv
    _printf_fp_dec.o(.text) refers to btod.o(CL$$btod_emul) for _btod_emul
    _printf_fp_dec.o(.text) refers to lludiv10.o(.text) for _ll_udiv10
    _printf_fp_dec.o(.text) refers to fpclassify.o(i.__ARM_fpclassify) for __ARM_fpclassify
    _printf_fp_dec.o(.text) refers to _printf_fp_infnan.o(.text) for _printf_fp_infnan
    _printf_fp_dec.o(.text) refers to rt_locale_intlibspace.o(.text) for __rt_locale
    _printf_char_common.o(.text) refers to __printf.o(.text) for __printf
    _printf_char.o(.text) refers (Weak) to _printf_str.o(.text) for _printf_str
    _printf_char_file.o(.text) refers to _printf_char_common.o(.text) for _printf_char_common
    _printf_char_file.o(.text) refers to ferror.o(.text) for ferror
    _printf_char_file.o(.text) refers to usart.o(.text) for fputc
    rt_memclr.o(.text) refers to rt_memclr_w.o(.text) for _memset_w
    dcmpi.o(x$fpl$dcmpinf) refers (Special) to usenofp.o(x$fpl$usenofp) for __I$use$fp
    dflt_clz.o(x$fpl$dfltu) refers (Special) to usenofp.o(x$fpl$usenofp) for __I$use$fp
    dflt_clz.o(x$fpl$dflt) refers (Special) to usenofp.o(x$fpl$usenofp) for __I$use$fp
    dflt_clz.o(x$fpl$dfltn) refers (Special) to usenofp.o(x$fpl$usenofp) for __I$use$fp
    dnaninf.o(x$fpl$dnaninf) refers (Special) to usenofp.o(x$fpl$usenofp) for __I$use$fp
    dnaninf.o(x$fpl$dnaninf) refers to except.o(x$fpl$exception) for __fpl_exception
    dnaninf.o(x$fpl$dnaninf) refers to dunder_clz.o(x$fpl$dunder) for __dunder_d
    dretinf.o(x$fpl$dretinf) refers (Special) to usenofp.o(x$fpl$usenofp) for __I$use$fp
    except.o(x$fpl$exception) refers (Special) to usenofp.o(x$fpl$usenofp) for __I$use$fp
    except.o(x$fpl$exception) refers to trapv.o(x$fpl$trapveneer) for _fp_trapveneer
    except.o(x$fpl$exception) refers to retnan.o(x$fpl$retnan) for __fpl_return_NaN
    fnaninf.o(x$fpl$fnaninf) refers (Special) to usenofp.o(x$fpl$usenofp) for __I$use$fp
    fnaninf.o(x$fpl$fnaninf) refers to except.o(x$fpl$exception) for __fpl_exception
    fnaninf.o(x$fpl$fnaninf) refers to funder_clz.o(x$fpl$funder) for __funder_d
    fretinf.o(x$fpl$fretinf) refers (Special) to usenofp.o(x$fpl$usenofp) for __I$use$fp
    funder_clz.o(x$fpl$funder) refers (Special) to usenofp.o(x$fpl$usenofp) for __I$use$fp
    funder_clz.o(x$fpl$funder) refers to except.o(x$fpl$exception) for __fpl_exception
    funder_clz.o(x$fpl$funder) refers to trapv.o(x$fpl$trapveneer) for _fp_trapveneer
    trapv.o(x$fpl$trapveneer) refers (Special) to usenofp.o(x$fpl$usenofp) for __I$use$fp
    trapv.o(x$fpl$trapveneer) refers to _fptrap.o(.text) for _fp_trap
    fpclassifyf.o(i.__ARM_fpclassifyf) refers (Special) to usenofp.o(x$fpl$usenofp) for __I$use$fp
    rredf.o(i.__mathlib_rredf2) refers (Special) to usenofp.o(x$fpl$usenofp) for __I$use$fp
    rredf.o(i.__mathlib_rredf2) refers to rredf.o(.constdata) for .constdata
    rredf.o(.constdata) refers (Special) to usenofp.o(x$fpl$usenofp) for __I$use$fp
    sqrtf_full.o(i.__hardfp_sqrtf) refers (Special) to usenofp.o(x$fpl$usenofp) for __I$use$fp
    sqrtf_full.o(i.__hardfp_sqrtf) refers to _rserrno.o(.text) for __set_errno
    sqrtf_full.o(i.__softfp_sqrtf) refers (Special) to usenofp.o(x$fpl$usenofp) for __I$use$fp
    sqrtf_full.o(i.__softfp_sqrtf) refers to _rserrno.o(.text) for __set_errno
    sqrtf_full.o(i.sqrtf) refers (Special) to usenofp.o(x$fpl$usenofp) for __I$use$fp
    sqrtf_full.o(i.sqrtf) refers to _rserrno.o(.text) for __set_errno
    sqrtf_full_x.o(i.____hardfp_sqrtf$lsc) refers (Special) to usenofp.o(x$fpl$usenofp) for __I$use$fp
    sqrtf_full_x.o(i.____hardfp_sqrtf$lsc) refers to _rserrno.o(.text) for __set_errno
    sqrtf_full_x.o(i.____hardfp_sqrtf$lsc) refers to d2f_clz.o(x$fpl$d2f) for __aeabi_d2f
    sqrtf_full_x.o(i.____softfp_sqrtf$lsc) refers (Special) to usenofp.o(x$fpl$usenofp) for __I$use$fp
    sqrtf_full_x.o(i.____softfp_sqrtf$lsc) refers to _rserrno.o(.text) for __set_errno
    sqrtf_full_x.o(i.____softfp_sqrtf$lsc) refers to d2f_clz.o(x$fpl$d2f) for __aeabi_d2f
    sqrtf_full_x.o(i.__sqrtf$lsc) refers (Special) to usenofp.o(x$fpl$usenofp) for __I$use$fp
    sqrtf_full_x.o(i.__sqrtf$lsc) refers to _rserrno.o(.text) for __set_errno
    sqrtf_full_x.o(i.__sqrtf$lsc) refers to d2f_clz.o(x$fpl$d2f) for __aeabi_d2f
    libspace.o(.text) refers to libspace.o(.bss) for __libspace_start
    __rtentry2.o(.ARM.Collect$$rtentry$$00000008) refers to boardinit2.o(.text) for _platform_post_stackheap_init
    __rtentry2.o(.ARM.Collect$$rtentry$$0000000A) refers to libinit.o(.ARM.Collect$$libinit$$00000000) for __rt_lib_init
    __rtentry2.o(.ARM.Collect$$rtentry$$0000000B) refers to boardinit3.o(.text) for _platform_post_lib_init
    __rtentry2.o(.ARM.Collect$$rtentry$$0000000D) refers to main.o(.text) for main
    __rtentry2.o(.ARM.Collect$$rtentry$$0000000D) refers to exit.o(.text) for exit
    __rtentry2.o(.ARM.exidx) refers to __rtentry2.o(.ARM.Collect$$rtentry$$00000001) for .ARM.Collect$$rtentry$$00000001
    __rtentry2.o(.ARM.exidx) refers to __rtentry2.o(.ARM.Collect$$rtentry$$00000008) for .ARM.Collect$$rtentry$$00000008
    __rtentry2.o(.ARM.exidx) refers to __rtentry2.o(.ARM.Collect$$rtentry$$0000000A) for .ARM.Collect$$rtentry$$0000000A
    __rtentry2.o(.ARM.exidx) refers to __rtentry2.o(.ARM.Collect$$rtentry$$0000000B) for .ARM.Collect$$rtentry$$0000000B
    __rtentry2.o(.ARM.exidx) refers to __rtentry2.o(.ARM.Collect$$rtentry$$0000000D) for .ARM.Collect$$rtentry$$0000000D
    __rtentry4.o(.ARM.Collect$$rtentry$$00000004) refers to sys_stackheap_outer.o(.text) for __user_setup_stackheap
    __rtentry4.o(.ARM.exidx) refers to __rtentry4.o(.ARM.Collect$$rtentry$$00000004) for .ARM.Collect$$rtentry$$00000004
    rt_locale.o(.text) refers to rt_locale.o(.bss) for __rt_locale_data
    rt_locale_intlibspace.o(.text) refers to libspace.o(.bss) for __libspace_start
    rt_errno_addr.o(.text) refers to rt_errno_addr.o(.bss) for __aeabi_errno_addr_data
    rt_errno_addr_intlibspace.o(.text) refers to libspace.o(.bss) for __libspace_start
    maybetermalloc2.o(.emb_text) refers (Special) to term_alloc.o(.text) for _terminate_alloc
    h1_extend.o(.text) refers to h1_free.o(.text) for free
    h1_init_mt.o(.text) refers to mutex_dummy.o(.text) for _mutex_initialize
    h1_extend_mt.o(.text) refers to h1_free_mt.o(.text) for _free_internal
    _fptrap.o(.text) refers to defsig_fpe_outer.o(.text) for __rt_SIGFPE
    bigflt0.o(.text) refers (Special) to usenofp.o(x$fpl$usenofp) for __I$use$fp
    bigflt0.o(.text) refers to btod.o(CL$$btod_emul) for _btod_emul
    bigflt0.o(.text) refers to btod.o(CL$$btod_ediv) for _btod_ediv
    bigflt0.o(.text) refers to bigflt0.o(.constdata) for .constdata
    bigflt0.o(.constdata) refers (Special) to usenofp.o(x$fpl$usenofp) for __I$use$fp
    btod.o(CL$$btod_d2e) refers (Special) to usenofp.o(x$fpl$usenofp) for __I$use$fp
    btod.o(CL$$btod_d2e) refers to btod.o(CL$$btod_d2e_norm_op1) for _d2e_norm_op1
    btod.o(CL$$btod_d2e_norm_op1) refers (Special) to usenofp.o(x$fpl$usenofp) for __I$use$fp
    btod.o(CL$$btod_d2e_norm_op1) refers to btod.o(CL$$btod_d2e_denorm_low) for _d2e_denorm_low
    btod.o(CL$$btod_d2e_denorm_low) refers (Special) to usenofp.o(x$fpl$usenofp) for __I$use$fp
    btod.o(CL$$btod_emul) refers (Special) to usenofp.o(x$fpl$usenofp) for __I$use$fp
    btod.o(CL$$btod_emul) refers to btod.o(CL$$btod_mult_common) for __btod_mult_common
    btod.o(CL$$btod_emul) refers to btod.o(CL$$btod_e2e) for _e2e
    btod.o(CL$$btod_ediv) refers (Special) to usenofp.o(x$fpl$usenofp) for __I$use$fp
    btod.o(CL$$btod_ediv) refers to btod.o(CL$$btod_div_common) for __btod_div_common
    btod.o(CL$$btod_ediv) refers to btod.o(CL$$btod_e2e) for _e2e
    btod.o(CL$$btod_emuld) refers (Special) to usenofp.o(x$fpl$usenofp) for __I$use$fp
    btod.o(CL$$btod_emuld) refers to btod.o(CL$$btod_mult_common) for __btod_mult_common
    btod.o(CL$$btod_emuld) refers to btod.o(CL$$btod_e2d) for _e2d
    btod.o(CL$$btod_edivd) refers (Special) to usenofp.o(x$fpl$usenofp) for __I$use$fp
    btod.o(CL$$btod_edivd) refers to btod.o(CL$$btod_div_common) for __btod_div_common
    btod.o(CL$$btod_edivd) refers to btod.o(CL$$btod_e2d) for _e2d
    btod.o(CL$$btod_e2e) refers (Special) to usenofp.o(x$fpl$usenofp) for __I$use$fp
    btod.o(CL$$btod_e2e) refers to istatus.o(x$fpl$ieeestatus) for __ieee_status
    btod.o(CL$$btod_e2d) refers (Special) to usenofp.o(x$fpl$usenofp) for __I$use$fp
    btod.o(CL$$btod_e2d) refers to btod.o(CL$$btod_e2e) for _e2e
    btod.o(CL$$btod_mult_common) refers (Special) to usenofp.o(x$fpl$usenofp) for __I$use$fp
    btod.o(CL$$btod_div_common) refers (Special) to usenofp.o(x$fpl$usenofp) for __I$use$fp
    lc_numeric_c.o(locale$$data) refers (Special) to libinit2.o(.ARM.Collect$$libinit$$00000016) for __rt_lib_init_lc_numeric_2
    lc_numeric_c.o(locale$$code) refers (Special) to libinit2.o(.ARM.Collect$$libinit$$00000016) for __rt_lib_init_lc_numeric_2
    lc_numeric_c.o(locale$$code) refers to strcmpv7m.o(.text) for strcmp
    lc_numeric_c.o(locale$$code) refers to lc_numeric_c.o(locale$$data) for __lcnum_c_name
    defsig_rtmem_outer.o(.text) refers to defsig_rtmem_inner.o(.text) for __rt_SIGRTMEM_inner
    defsig_rtmem_outer.o(.text) refers to defsig_exit.o(.text) for __sig_exit
    defsig_rtmem_formal.o(.text) refers to rt_raise.o(.text) for __rt_raise
    heapauxa.o(.text) refers to heapauxa.o(.data) for .data
    _get_argv.o(.text) refers (Special) to hrguard.o(.text) for __heap_region$guard
    _get_argv.o(.text) refers to h1_alloc.o(.text) for malloc
    _get_argv.o(.text) refers to defsig_rtmem_outer.o(.text) for __rt_SIGRTMEM
    _get_argv.o(.text) refers to sys_command.o(.text) for _sys_command_string
    libinit2.o(.ARM.Collect$$libinit$$00000001) refers to fpinit.o(x$fpl$fpinit) for _fp_init
    libinit2.o(.ARM.Collect$$libinit$$00000005) refers (Weak) to init_alloc.o(.text) for _init_alloc
    libinit2.o(.ARM.Collect$$libinit$$0000000F) refers (Weak) to rt_locale_intlibspace.o(.text) for __rt_locale
    libinit2.o(.ARM.Collect$$libinit$$00000010) refers to libinit2.o(.ARM.Collect$$libinit$$0000000F) for .ARM.Collect$$libinit$$0000000F
    libinit2.o(.ARM.Collect$$libinit$$00000012) refers to libinit2.o(.ARM.Collect$$libinit$$0000000F) for .ARM.Collect$$libinit$$0000000F
    libinit2.o(.ARM.Collect$$libinit$$00000014) refers to libinit2.o(.ARM.Collect$$libinit$$0000000F) for .ARM.Collect$$libinit$$0000000F
    libinit2.o(.ARM.Collect$$libinit$$00000016) refers to libinit2.o(.ARM.Collect$$libinit$$0000000F) for .ARM.Collect$$libinit$$0000000F
    libinit2.o(.ARM.Collect$$libinit$$00000016) refers (Weak) to lc_numeric_c.o(locale$$code) for _get_lc_numeric
    libinit2.o(.ARM.Collect$$libinit$$00000018) refers to libinit2.o(.ARM.Collect$$libinit$$0000000F) for .ARM.Collect$$libinit$$0000000F
    libinit2.o(.ARM.Collect$$libinit$$00000026) refers to argv_veneer.o(.emb_text) for __ARM_argv_veneer
    libinit2.o(.ARM.Collect$$libinit$$00000027) refers to argv_veneer.o(.emb_text) for __ARM_argv_veneer
    dunder_clz.o(x$fpl$dunder) refers (Special) to usenofp.o(x$fpl$usenofp) for __I$use$fp
    dunder_clz.o(x$fpl$dunder) refers to except.o(x$fpl$exception) for __fpl_exception
    dunder_clz.o(x$fpl$dunder) refers to drenorm_clz.o(x$fpl$drenorm) for __fpl_drenorm1
    dunder_clz.o(x$fpl$dunder) refers to trapv.o(x$fpl$trapveneer) for _fp_trapveneer
    istatus.o(x$fpl$ieeestatus) refers (Special) to usenofp.o(x$fpl$usenofp) for __I$use$fp
    retnan.o(x$fpl$retnan) refers (Special) to usenofp.o(x$fpl$usenofp) for __I$use$fp
    retnan.o(x$fpl$retnan) refers to trapv.o(x$fpl$trapveneer) for __fpl_cmpreturn
    fpclassify.o(i.__ARM_fpclassify) refers (Special) to usenofp.o(x$fpl$usenofp) for __I$use$fp
    sys_command.o(.text) refers (Special) to use_no_semi.o(.text) for __I$use$semihosting
    sys_command.o(.text) refers (Special) to indicate_semi.o(.text) for __semihosting_library_function
    sys_stackheap_outer.o(.text) refers to libspace.o(.text) for __user_perproc_libspace
    sys_stackheap_outer.o(.text) refers to startup_stm32f427_437xx.o(.text) for __user_initial_stackheap
    rt_raise.o(.text) refers to __raise.o(.text) for __raise
    rt_raise.o(.text) refers to usart.o(.text) for _sys_exit
    term_alloc.o(.text) refers (Special) to libshutdown2.o(.ARM.Collect$$libshutdown$$0000000D) for __rt_lib_shutdown_heap_2
    term_alloc.o(.text) refers to rt_heap_descriptor_intlibspace.o(.text) for __rt_heap_descriptor
    term_alloc.o(.text) refers to h1_final.o(.text) for __Heap_Finalize
    exit.o(.text) refers to rtexit.o(.ARM.Collect$$rtexit$$00000000) for __rt_exit
    defsig_exit.o(.text) refers to usart.o(.text) for _sys_exit
    defsig_fpe_outer.o(.text) refers to defsig_fpe_inner.o(.text) for __rt_SIGFPE_inner
    defsig_fpe_outer.o(.text) refers to defsig_exit.o(.text) for __sig_exit
    defsig_fpe_formal.o(.text) refers to rt_raise.o(.text) for __rt_raise
    defsig_rtmem_inner.o(.text) refers to defsig_general.o(.text) for __default_signal_display
    argv_veneer.o(.emb_text) refers to no_argv.o(.text) for __ARM_get_argv
    libinit.o(.ARM.Collect$$libinit$$00000000) refers (Special) to libinit2.o(.ARM.Collect$$libinit$$0000002E) for __rt_lib_init_alloca_1
    libinit.o(.ARM.Collect$$libinit$$00000000) refers (Special) to libinit2.o(.ARM.Collect$$libinit$$0000002C) for __rt_lib_init_argv_1
    libinit.o(.ARM.Collect$$libinit$$00000000) refers (Special) to libinit2.o(.ARM.Collect$$libinit$$0000001B) for __rt_lib_init_atexit_1
    libinit.o(.ARM.Collect$$libinit$$00000000) refers (Special) to libinit2.o(.ARM.Collect$$libinit$$00000021) for __rt_lib_init_clock_1
    libinit.o(.ARM.Collect$$libinit$$00000000) refers (Special) to libinit2.o(.ARM.Collect$$libinit$$00000032) for __rt_lib_init_cpp_1
    libinit.o(.ARM.Collect$$libinit$$00000000) refers (Special) to libinit2.o(.ARM.Collect$$libinit$$00000030) for __rt_lib_init_exceptions_1
    libinit.o(.ARM.Collect$$libinit$$00000000) refers (Special) to libinit2.o(.ARM.Collect$$libinit$$00000001) for __rt_lib_init_fp_1
    libinit.o(.ARM.Collect$$libinit$$00000000) refers (Special) to libinit2.o(.ARM.Collect$$libinit$$0000001F) for __rt_lib_init_fp_trap_1
    libinit.o(.ARM.Collect$$libinit$$00000000) refers (Special) to libinit2.o(.ARM.Collect$$libinit$$00000023) for __rt_lib_init_getenv_1
    libinit.o(.ARM.Collect$$libinit$$00000000) refers (Special) to libinit2.o(.ARM.Collect$$libinit$$0000000A) for __rt_lib_init_heap_1
    libinit.o(.ARM.Collect$$libinit$$00000000) refers (Special) to libinit2.o(.ARM.Collect$$libinit$$00000011) for __rt_lib_init_lc_collate_1
    libinit.o(.ARM.Collect$$libinit$$00000000) refers (Special) to libinit2.o(.ARM.Collect$$libinit$$00000013) for __rt_lib_init_lc_ctype_1
    libinit.o(.ARM.Collect$$libinit$$00000000) refers (Special) to libinit2.o(.ARM.Collect$$libinit$$00000015) for __rt_lib_init_lc_monetary_1
    libinit.o(.ARM.Collect$$libinit$$00000000) refers (Special) to libinit2.o(.ARM.Collect$$libinit$$00000017) for __rt_lib_init_lc_numeric_1
    libinit.o(.ARM.Collect$$libinit$$00000000) refers (Special) to libinit2.o(.ARM.Collect$$libinit$$00000019) for __rt_lib_init_lc_time_1
    libinit.o(.ARM.Collect$$libinit$$00000000) refers (Special) to libinit2.o(.ARM.Collect$$libinit$$00000004) for __rt_lib_init_preinit_1
    libinit.o(.ARM.Collect$$libinit$$00000000) refers (Special) to libinit2.o(.ARM.Collect$$libinit$$0000000E) for __rt_lib_init_rand_1
    libinit.o(.ARM.Collect$$libinit$$00000000) refers (Special) to libinit2.o(.ARM.Collect$$libinit$$00000033) for __rt_lib_init_return
    libinit.o(.ARM.Collect$$libinit$$00000000) refers (Special) to libinit2.o(.ARM.Collect$$libinit$$0000001D) for __rt_lib_init_signal_1
    libinit.o(.ARM.Collect$$libinit$$00000000) refers (Special) to libinit2.o(.ARM.Collect$$libinit$$00000025) for __rt_lib_init_stdio_1
    libinit.o(.ARM.Collect$$libinit$$00000000) refers (Special) to libinit2.o(.ARM.Collect$$libinit$$0000000C) for __rt_lib_init_user_alloc_1
    drenorm_clz.o(x$fpl$drenorm) refers (Special) to usenofp.o(x$fpl$usenofp) for __I$use$fp
    rtexit.o(.ARM.Collect$$rtexit$$00000000) refers (Special) to rtexit2.o(.ARM.Collect$$rtexit$$00000004) for __rt_exit_exit
    rtexit.o(.ARM.Collect$$rtexit$$00000000) refers (Special) to rtexit2.o(.ARM.Collect$$rtexit$$00000003) for __rt_exit_ls
    rtexit.o(.ARM.Collect$$rtexit$$00000000) refers (Special) to rtexit2.o(.ARM.Collect$$rtexit$$00000002) for __rt_exit_prels_1
    rtexit.o(.ARM.exidx) refers (Special) to rtexit2.o(.ARM.Collect$$rtexit$$00000004) for __rt_exit_exit
    rtexit.o(.ARM.exidx) refers (Special) to rtexit2.o(.ARM.Collect$$rtexit$$00000003) for __rt_exit_ls
    rtexit.o(.ARM.exidx) refers (Special) to rtexit2.o(.ARM.Collect$$rtexit$$00000002) for __rt_exit_prels_1
    rtexit.o(.ARM.exidx) refers to rtexit.o(.ARM.Collect$$rtexit$$00000000) for .ARM.Collect$$rtexit$$00000000
    __raise.o(.text) refers to defsig.o(CL$$defsig) for __default_signal_handler
    defsig_general.o(.text) refers to usart.o(.text) for _ttywrch
    defsig_fpe_inner.o(.text) refers to defsig_general.o(.text) for __default_signal_display
    _get_argv_nomalloc.o(.text) refers (Special) to hrguard.o(.text) for __heap_region$guard
    _get_argv_nomalloc.o(.text) refers to defsig_rtmem_outer.o(.text) for __rt_SIGRTMEM
    _get_argv_nomalloc.o(.text) refers to sys_command.o(.text) for _sys_command_string
    libshutdown2.o(.ARM.Collect$$libshutdown$$0000000C) refers (Weak) to term_alloc.o(.text) for _terminate_alloc
    rtexit2.o(.ARM.Collect$$rtexit$$00000003) refers to libshutdown.o(.ARM.Collect$$libshutdown$$00000000) for __rt_lib_shutdown
    rtexit2.o(.ARM.Collect$$rtexit$$00000004) refers to usart.o(.text) for _sys_exit
    rtexit2.o(.ARM.exidx) refers to rtexit2.o(.ARM.Collect$$rtexit$$00000001) for .ARM.Collect$$rtexit$$00000001
    rtexit2.o(.ARM.exidx) refers to rtexit2.o(.ARM.Collect$$rtexit$$00000003) for .ARM.Collect$$rtexit$$00000003
    rtexit2.o(.ARM.exidx) refers to rtexit2.o(.ARM.Collect$$rtexit$$00000004) for .ARM.Collect$$rtexit$$00000004
    defsig.o(CL$$defsig) refers to defsig_fpe_inner.o(.text) for __rt_SIGFPE_inner
    defsig.o(CL$$defsig) refers to defsig_rtmem_inner.o(.text) for __rt_SIGRTMEM_inner
    defsig_abrt_inner.o(.text) refers to defsig_general.o(.text) for __default_signal_display
    defsig_rtred_inner.o(.text) refers to defsig_general.o(.text) for __default_signal_display
    defsig_stak_inner.o(.text) refers to defsig_general.o(.text) for __default_signal_display
    defsig_pvfn_inner.o(.text) refers to defsig_general.o(.text) for __default_signal_display
    defsig_cppl_inner.o(.text) refers to defsig_general.o(.text) for __default_signal_display
    defsig_segv_inner.o(.text) refers to defsig_general.o(.text) for __default_signal_display
    defsig_other.o(.text) refers to defsig_general.o(.text) for __default_signal_display
    libshutdown.o(.ARM.Collect$$libshutdown$$00000000) refers (Special) to libshutdown2.o(.ARM.Collect$$libshutdown$$00000006) for __rt_lib_shutdown_fp_trap_1
    libshutdown.o(.ARM.Collect$$libshutdown$$00000000) refers (Special) to libshutdown2.o(.ARM.Collect$$libshutdown$$0000000E) for __rt_lib_shutdown_heap_1
    libshutdown.o(.ARM.Collect$$libshutdown$$00000000) refers (Special) to libshutdown2.o(.ARM.Collect$$libshutdown$$0000000F) for __rt_lib_shutdown_return
    libshutdown.o(.ARM.Collect$$libshutdown$$00000000) refers (Special) to libshutdown2.o(.ARM.Collect$$libshutdown$$00000009) for __rt_lib_shutdown_signal_1
    libshutdown.o(.ARM.Collect$$libshutdown$$00000000) refers (Special) to libshutdown2.o(.ARM.Collect$$libshutdown$$00000003) for __rt_lib_shutdown_stdio_1
    libshutdown.o(.ARM.Collect$$libshutdown$$00000000) refers (Special) to libshutdown2.o(.ARM.Collect$$libshutdown$$0000000B) for __rt_lib_shutdown_user_alloc_1


==============================================================================

Removing Unused input sections from the image.

    Removing main.o(.rev16_text), (4 bytes).
    Removing main.o(.revsh_text), (4 bytes).
    Removing stm32f4xx_it.o(.rev16_text), (4 bytes).
    Removing stm32f4xx_it.o(.revsh_text), (4 bytes).
    Removing stm32f4xx_it.o(.bss), (16 bytes).
    Removing system_stm32f4xx.o(.rev16_text), (4 bytes).
    Removing system_stm32f4xx.o(.revsh_text), (4 bytes).
    Removing basicperipherals.o(.rev16_text), (4 bytes).
    Removing basicperipherals.o(.revsh_text), (4 bytes).
    Removing remotdbus.o(.rev16_text), (4 bytes).
    Removing remotdbus.o(.revsh_text), (4 bytes).
    Removing frictionmoterpwm.o(.rev16_text), (4 bytes).
    Removing frictionmoterpwm.o(.revsh_text), (4 bytes).
    Removing motorcan.o(.rev16_text), (4 bytes).
    Removing motorcan.o(.revsh_text), (4 bytes).
    Removing stmflash.o(.rev16_text), (4 bytes).
    Removing stmflash.o(.revsh_text), (4 bytes).
    Removing stmflash.o(.text), (352 bytes).
    Removing mainfocus_usart.o(.rev16_text), (4 bytes).
    Removing mainfocus_usart.o(.revsh_text), (4 bytes).
    Removing adc.o(.rev16_text), (4 bytes).
    Removing adc.o(.revsh_text), (4 bytes).
    Removing buzzer.o(.rev16_text), (4 bytes).
    Removing buzzer.o(.revsh_text), (4 bytes).
    Removing exit_init.o(.rev16_text), (4 bytes).
    Removing exit_init.o(.revsh_text), (4 bytes).
    Removing flash.o(.rev16_text), (4 bytes).
    Removing flash.o(.revsh_text), (4 bytes).
    Removing spi.o(.rev16_text), (4 bytes).
    Removing spi.o(.revsh_text), (4 bytes).
    Removing timer.o(.rev16_text), (4 bytes).
    Removing timer.o(.revsh_text), (4 bytes).
    Removing power_ctrl.o(.rev16_text), (4 bytes).
    Removing power_ctrl.o(.revsh_text), (4 bytes).
    Removing usart6.o(.rev16_text), (4 bytes).
    Removing usart6.o(.revsh_text), (4 bytes).
    Removing delay.o(.rev16_text), (4 bytes).
    Removing delay.o(.revsh_text), (4 bytes).
    Removing sys.o(.rev16_text), (4 bytes).
    Removing sys.o(.revsh_text), (4 bytes).
    Removing sys.o(.emb_text), (16 bytes).
    Removing usart.o(.rev16_text), (4 bytes).
    Removing usart.o(.revsh_text), (4 bytes).
    Removing misc.o(.rev16_text), (4 bytes).
    Removing misc.o(.revsh_text), (4 bytes).
    Removing stm32f4xx_gpio.o(.rev16_text), (4 bytes).
    Removing stm32f4xx_gpio.o(.revsh_text), (4 bytes).
    Removing stm32f4xx_rcc.o(.rev16_text), (4 bytes).
    Removing stm32f4xx_rcc.o(.revsh_text), (4 bytes).
    Removing stm32f4xx_syscfg.o(.rev16_text), (4 bytes).
    Removing stm32f4xx_syscfg.o(.revsh_text), (4 bytes).
    Removing stm32f4xx_usart.o(.rev16_text), (4 bytes).
    Removing stm32f4xx_usart.o(.revsh_text), (4 bytes).
    Removing stm32f4xx_can.o(.rev16_text), (4 bytes).
    Removing stm32f4xx_can.o(.revsh_text), (4 bytes).
    Removing stm32f4xx_dma.o(.rev16_text), (4 bytes).
    Removing stm32f4xx_dma.o(.revsh_text), (4 bytes).
    Removing stm32f4xx_tim.o(.rev16_text), (4 bytes).
    Removing stm32f4xx_tim.o(.revsh_text), (4 bytes).
    Removing stm32f4xx_spi.o(.rev16_text), (4 bytes).
    Removing stm32f4xx_spi.o(.revsh_text), (4 bytes).
    Removing stm32f4xx_flash.o(.rev16_text), (4 bytes).
    Removing stm32f4xx_flash.o(.revsh_text), (4 bytes).
    Removing stm32f4xx_iwdg.o(.rev16_text), (4 bytes).
    Removing stm32f4xx_iwdg.o(.revsh_text), (4 bytes).
    Removing stm32f4xx_iwdg.o(.text), (64 bytes).
    Removing stm32f4xx_exti.o(.rev16_text), (4 bytes).
    Removing stm32f4xx_exti.o(.revsh_text), (4 bytes).
    Removing stm32f4xx_adc.o(.rev16_text), (4 bytes).
    Removing stm32f4xx_adc.o(.revsh_text), (4 bytes).
    Removing event_groups.o(.text), (1140 bytes).
    Removing stream_buffer.o(.text), (2486 bytes).
    Removing calibrate_task.o(.rev16_text), (4 bytes).
    Removing calibrate_task.o(.revsh_text), (4 bytes).
    Removing detect_task.o(.rev16_text), (4 bytes).
    Removing detect_task.o(.revsh_text), (4 bytes).
    Removing gimbal_behaviour.o(.rev16_text), (4 bytes).
    Removing gimbal_behaviour.o(.revsh_text), (4 bytes).
    Removing gimbal_task.o(.rev16_text), (4 bytes).
    Removing gimbal_task.o(.revsh_text), (4 bytes).
    Removing ins_task.o(.rev16_text), (4 bytes).
    Removing ins_task.o(.revsh_text), (4 bytes).
    Removing pid.o(.rev16_text), (4 bytes).
    Removing pid.o(.revsh_text), (4 bytes).
    Removing start_task.o(.rev16_text), (4 bytes).
    Removing start_task.o(.revsh_text), (4 bytes).
    Removing user_lib.o(.rev16_text), (4 bytes).
    Removing user_lib.o(.revsh_text), (4 bytes).
    Removing auto_attacktask.o(.rev16_text), (4 bytes).
    Removing auto_attacktask.o(.revsh_text), (4 bytes).
    Removing chassis_behaviour.o(.rev16_text), (4 bytes).
    Removing chassis_behaviour.o(.revsh_text), (4 bytes).
    Removing chassis_task.o(.rev16_text), (4 bytes).
    Removing chassis_task.o(.revsh_text), (4 bytes).
    Removing chassis_task.o(.data), (8 bytes).
    Removing shoot.o(.rev16_text), (4 bytes).
    Removing shoot.o(.revsh_text), (4 bytes).
    Removing referee_dispatchtask.o(.rev16_text), (4 bytes).
    Removing referee_dispatchtask.o(.revsh_text), (4 bytes).
    Removing ahrs_middleware.o(.rev16_text), (4 bytes).
    Removing ahrs_middleware.o(.revsh_text), (4 bytes).
    Removing ist8310driver.o(.rev16_text), (4 bytes).
    Removing ist8310driver.o(.revsh_text), (4 bytes).
    Removing ist8310driver_middleware.o(.rev16_text), (4 bytes).
    Removing ist8310driver_middleware.o(.revsh_text), (4 bytes).
    Removing mpu6500driver.o(.rev16_text), (4 bytes).
    Removing mpu6500driver.o(.revsh_text), (4 bytes).
    Removing mpu6500driver_middleware.o(.rev16_text), (4 bytes).
    Removing mpu6500driver_middleware.o(.revsh_text), (4 bytes).
    Removing ahrs.o(i.get_carrier_gravity), (12 bytes).
    Removing ahrs.o(i.get_pitch), (46 bytes).
    Removing ahrs.o(i.get_roll), (82 bytes).
    Removing ahrs.o(i.get_yaw), (82 bytes).
    Removing arm_cos_f32.o(.rev16_text), (4 bytes).
    Removing arm_cos_f32.o(.revsh_text), (4 bytes).
    Removing arm_cos_f32.o(.rrx_text), (6 bytes).
    Removing arm_sin_f32.o(.rev16_text), (4 bytes).
    Removing arm_sin_f32.o(.revsh_text), (4 bytes).
    Removing arm_sin_f32.o(.rrx_text), (6 bytes).
    Removing arm_common_tables.o(.rev16_text), (4 bytes).
    Removing arm_common_tables.o(.revsh_text), (4 bytes).
    Removing arm_common_tables.o(.rrx_text), (6 bytes).
    Removing arm_common_tables.o(.constdata), (2048 bytes).
    Removing arm_common_tables.o(.constdata), (128 bytes).
    Removing arm_common_tables.o(.constdata), (256 bytes).
    Removing arm_common_tables.o(.constdata), (512 bytes).
    Removing arm_common_tables.o(.constdata), (1024 bytes).
    Removing arm_common_tables.o(.constdata), (2048 bytes).
    Removing arm_common_tables.o(.constdata), (4096 bytes).
    Removing arm_common_tables.o(.constdata), (8192 bytes).
    Removing arm_common_tables.o(.constdata), (16384 bytes).
    Removing arm_common_tables.o(.constdata), (32768 bytes).
    Removing arm_common_tables.o(.constdata), (96 bytes).
    Removing arm_common_tables.o(.constdata), (192 bytes).
    Removing arm_common_tables.o(.constdata), (384 bytes).
    Removing arm_common_tables.o(.constdata), (768 bytes).
    Removing arm_common_tables.o(.constdata), (1536 bytes).
    Removing arm_common_tables.o(.constdata), (3072 bytes).
    Removing arm_common_tables.o(.constdata), (6144 bytes).
    Removing arm_common_tables.o(.constdata), (12288 bytes).
    Removing arm_common_tables.o(.constdata), (24576 bytes).
    Removing arm_common_tables.o(.constdata), (48 bytes).
    Removing arm_common_tables.o(.constdata), (96 bytes).
    Removing arm_common_tables.o(.constdata), (192 bytes).
    Removing arm_common_tables.o(.constdata), (384 bytes).
    Removing arm_common_tables.o(.constdata), (768 bytes).
    Removing arm_common_tables.o(.constdata), (1536 bytes).
    Removing arm_common_tables.o(.constdata), (3072 bytes).
    Removing arm_common_tables.o(.constdata), (6144 bytes).
    Removing arm_common_tables.o(.constdata), (12288 bytes).
    Removing arm_common_tables.o(.constdata), (128 bytes).
    Removing arm_common_tables.o(.constdata), (256 bytes).
    Removing arm_common_tables.o(.constdata), (40 bytes).
    Removing arm_common_tables.o(.constdata), (96 bytes).
    Removing arm_common_tables.o(.constdata), (112 bytes).
    Removing arm_common_tables.o(.constdata), (416 bytes).
    Removing arm_common_tables.o(.constdata), (880 bytes).
    Removing arm_common_tables.o(.constdata), (896 bytes).
    Removing arm_common_tables.o(.constdata), (3600 bytes).
    Removing arm_common_tables.o(.constdata), (7616 bytes).
    Removing arm_common_tables.o(.constdata), (8064 bytes).
    Removing arm_common_tables.o(.constdata), (24 bytes).
    Removing arm_common_tables.o(.constdata), (48 bytes).
    Removing arm_common_tables.o(.constdata), (112 bytes).
    Removing arm_common_tables.o(.constdata), (224 bytes).
    Removing arm_common_tables.o(.constdata), (480 bytes).
    Removing arm_common_tables.o(.constdata), (960 bytes).
    Removing arm_common_tables.o(.constdata), (1984 bytes).
    Removing arm_common_tables.o(.constdata), (3968 bytes).
    Removing arm_common_tables.o(.constdata), (8064 bytes).
    Removing arm_common_tables.o(.constdata), (128 bytes).
    Removing arm_common_tables.o(.constdata), (256 bytes).
    Removing arm_common_tables.o(.constdata), (512 bytes).
    Removing arm_common_tables.o(.constdata), (1024 bytes).
    Removing arm_common_tables.o(.constdata), (2048 bytes).
    Removing arm_common_tables.o(.constdata), (4096 bytes).
    Removing arm_common_tables.o(.constdata), (8192 bytes).
    Removing arm_common_tables.o(.constdata), (16384 bytes).
    Removing arm_common_tables.o(.constdata), (2052 bytes).
    Removing arm_common_tables.o(.constdata), (1026 bytes).

180 unused section(s) (total 219480 bytes) removed from the image.

==============================================================================

Image Symbol Table

    Local Symbols

    Symbol Name                              Value     Ov Type        Size  Object(Section)

    ../clib/angel/boardlib.s                 0x00000000   Number         0  boardshut.o ABSOLUTE
    ../clib/angel/boardlib.s                 0x00000000   Number         0  boardinit2.o ABSOLUTE
    ../clib/angel/boardlib.s                 0x00000000   Number         0  boardinit1.o ABSOLUTE
    ../clib/angel/boardlib.s                 0x00000000   Number         0  boardinit3.o ABSOLUTE
    ../clib/angel/dczerorl2.s                0x00000000   Number         0  __dczerorl2.o ABSOLUTE
    ../clib/angel/handlers.s                 0x00000000   Number         0  __scatter_zi.o ABSOLUTE
    ../clib/angel/kernel.s                   0x00000000   Number         0  rtexit2.o ABSOLUTE
    ../clib/angel/kernel.s                   0x00000000   Number         0  __rtentry4.o ABSOLUTE
    ../clib/angel/kernel.s                   0x00000000   Number         0  rtexit.o ABSOLUTE
    ../clib/angel/kernel.s                   0x00000000   Number         0  __rtentry2.o ABSOLUTE
    ../clib/angel/kernel.s                   0x00000000   Number         0  __rtentry.o ABSOLUTE
    ../clib/angel/rt.s                       0x00000000   Number         0  rt_errno_addr_intlibspace.o ABSOLUTE
    ../clib/angel/rt.s                       0x00000000   Number         0  rt_locale_intlibspace.o ABSOLUTE
    ../clib/angel/rt.s                       0x00000000   Number         0  rt_raise.o ABSOLUTE
    ../clib/angel/rt.s                       0x00000000   Number         0  rt_errno_addr.o ABSOLUTE
    ../clib/angel/rt.s                       0x00000000   Number         0  rt_locale.o ABSOLUTE
    ../clib/angel/rt.s                       0x00000000   Number         0  rt_heap_descriptor.o ABSOLUTE
    ../clib/angel/rt.s                       0x00000000   Number         0  rt_heap_descriptor_intlibspace.o ABSOLUTE
    ../clib/angel/scatter.s                  0x00000000   Number         0  __scatter.o ABSOLUTE
    ../clib/angel/startup.s                  0x00000000   Number         0  __main.o ABSOLUTE
    ../clib/angel/sys.s                      0x00000000   Number         0  use_no_semi_2.o ABSOLUTE
    ../clib/angel/sys.s                      0x00000000   Number         0  mutex_dummy.o ABSOLUTE
    ../clib/angel/sys.s                      0x00000000   Number         0  indicate_semi.o ABSOLUTE
    ../clib/angel/sys.s                      0x00000000   Number         0  use_no_semi.o ABSOLUTE
    ../clib/angel/sys.s                      0x00000000   Number         0  libspace.o ABSOLUTE
    ../clib/angel/sys.s                      0x00000000   Number         0  sys_stackheap_outer.o ABSOLUTE
    ../clib/angel/sysapp.c                   0x00000000   Number         0  sys_command.o ABSOLUTE
    ../clib/armsys.c                         0x00000000   Number         0  _get_argv.o ABSOLUTE
    ../clib/armsys.c                         0x00000000   Number         0  _get_argv_nomalloc.o ABSOLUTE
    ../clib/armsys.c                         0x00000000   Number         0  argv_veneer.o ABSOLUTE
    ../clib/armsys.c                         0x00000000   Number         0  argv_veneer.o ABSOLUTE
    ../clib/armsys.c                         0x00000000   Number         0  no_argv.o ABSOLUTE
    ../clib/bigflt.c                         0x00000000   Number         0  bigflt0.o ABSOLUTE
    ../clib/btod.s                           0x00000000   Number         0  btod.o ABSOLUTE
    ../clib/fenv.c                           0x00000000   Number         0  _fptrap.o ABSOLUTE
    ../clib/fenv.c                           0x00000000   Number         0  _rserrno.o ABSOLUTE
    ../clib/heap1.c                          0x00000000   Number         0  h1_alloc.o ABSOLUTE
    ../clib/heap1.c                          0x00000000   Number         0  h1_alloc_mt.o ABSOLUTE
    ../clib/heap1.c                          0x00000000   Number         0  h1_free_mt.o ABSOLUTE
    ../clib/heap1.c                          0x00000000   Number         0  h1_extend_mt.o ABSOLUTE
    ../clib/heap1.c                          0x00000000   Number         0  h1_init_mt.o ABSOLUTE
    ../clib/heap1.c                          0x00000000   Number         0  h1_final_mt.o ABSOLUTE
    ../clib/heap1.c                          0x00000000   Number         0  h1_extend.o ABSOLUTE
    ../clib/heap1.c                          0x00000000   Number         0  h1_free.o ABSOLUTE
    ../clib/heap1.c                          0x00000000   Number         0  h1_init.o ABSOLUTE
    ../clib/heap1.c                          0x00000000   Number         0  h1_final.o ABSOLUTE
    ../clib/heap2.c                          0x00000000   Number         0  heap2.o ABSOLUTE
    ../clib/heap2.c                          0x00000000   Number         0  fdtree.o ABSOLUTE
    ../clib/heap2.c                          0x00000000   Number         0  heap2mt.o ABSOLUTE
    ../clib/heapalloc.c                      0x00000000   Number         0  maybetermalloc1.o ABSOLUTE
    ../clib/heapalloc.c                      0x00000000   Number         0  maybetermalloc2.o ABSOLUTE
    ../clib/heapalloc.c                      0x00000000   Number         0  hguard.o ABSOLUTE
    ../clib/heapalloc.c                      0x00000000   Number         0  init_alloc.o ABSOLUTE
    ../clib/heapalloc.c                      0x00000000   Number         0  malloc.o ABSOLUTE
    ../clib/heapalloc.c                      0x00000000   Number         0  heapstubs.o ABSOLUTE
    ../clib/heapalloc.c                      0x00000000   Number         0  maybetermalloc2.o ABSOLUTE
    ../clib/heapalloc.c                      0x00000000   Number         0  term_alloc.o ABSOLUTE
    ../clib/heapalloc.c                      0x00000000   Number         0  calloc.o ABSOLUTE
    ../clib/heapalloc.c                      0x00000000   Number         0  maybetermalloc1.o ABSOLUTE
    ../clib/heapalloc.c                      0x00000000   Number         0  free.o ABSOLUTE
    ../clib/heapalloc.c                      0x00000000   Number         0  hrguard.o ABSOLUTE
    ../clib/heapaux.c                        0x00000000   Number         0  heapauxi.o ABSOLUTE
    ../clib/heapaux.c                        0x00000000   Number         0  heapauxa.o ABSOLUTE
    ../clib/libinit.s                        0x00000000   Number         0  libinit2.o ABSOLUTE
    ../clib/libinit.s                        0x00000000   Number         0  libshutdown2.o ABSOLUTE
    ../clib/libinit.s                        0x00000000   Number         0  libinit.o ABSOLUTE
    ../clib/libinit.s                        0x00000000   Number         0  libshutdown.o ABSOLUTE
    ../clib/locale.s                         0x00000000   Number         0  lc_numeric_c.o ABSOLUTE
    ../clib/longlong.s                       0x00000000   Number         0  lludiv10.o ABSOLUTE
    ../clib/memcpset.s                       0x00000000   Number         0  memset.o ABSOLUTE
    ../clib/memcpset.s                       0x00000000   Number         0  rt_memcpy_w.o ABSOLUTE
    ../clib/memcpset.s                       0x00000000   Number         0  rt_memcpy_v6.o ABSOLUTE
    ../clib/memcpset.s                       0x00000000   Number         0  rt_memclr_w.o ABSOLUTE
    ../clib/memcpset.s                       0x00000000   Number         0  aeabi_memset.o ABSOLUTE
    ../clib/memcpset.s                       0x00000000   Number         0  rt_memclr.o ABSOLUTE
    ../clib/memcpset.s                       0x00000000   Number         0  strcmpv7m.o ABSOLUTE
    ../clib/printf.c                         0x00000000   Number         0  __printf_wp.o ABSOLUTE
    ../clib/printf.c                         0x00000000   Number         0  __2printf.o ABSOLUTE
    ../clib/printf.c                         0x00000000   Number         0  __2sprintf.o ABSOLUTE
    ../clib/printf.c                         0x00000000   Number         0  noretval__2printf.o ABSOLUTE
    ../clib/printf.c                         0x00000000   Number         0  __printf_nopercent.o ABSOLUTE
    ../clib/printf.c                         0x00000000   Number         0  noretval__2sprintf.o ABSOLUTE
    ../clib/printf.c                         0x00000000   Number         0  _printf_char.o ABSOLUTE
    ../clib/printf.c                         0x00000000   Number         0  __printf.o ABSOLUTE
    ../clib/printf.c                         0x00000000   Number         0  _printf_str.o ABSOLUTE
    ../clib/printf.c                         0x00000000   Number         0  _printf_dec.o ABSOLUTE
    ../clib/printf.c                         0x00000000   Number         0  __printf_flags.o ABSOLUTE
    ../clib/printf.c                         0x00000000   Number         0  _printf_char_file.o ABSOLUTE
    ../clib/printf.c                         0x00000000   Number         0  __printf_ss.o ABSOLUTE
    ../clib/printf.c                         0x00000000   Number         0  __printf_flags_ss.o ABSOLUTE
    ../clib/printf.c                         0x00000000   Number         0  _printf_char_common.o ABSOLUTE
    ../clib/printf.c                         0x00000000   Number         0  _sputc.o ABSOLUTE
    ../clib/printf.c                         0x00000000   Number         0  __printf_flags_wp.o ABSOLUTE
    ../clib/printf.c                         0x00000000   Number         0  _printf_fp_dec.o ABSOLUTE
    ../clib/printf.c                         0x00000000   Number         0  _printf_intcommon.o ABSOLUTE
    ../clib/printf.c                         0x00000000   Number         0  __printf_ss_wp.o ABSOLUTE
    ../clib/printf.c                         0x00000000   Number         0  __printf_flags_ss_wp.o ABSOLUTE
    ../clib/printf.c                         0x00000000   Number         0  _printf_fp_infnan.o ABSOLUTE
    ../clib/printf_percent.s                 0x00000000   Number         0  _printf_percent.o ABSOLUTE
    ../clib/printf_percent.s                 0x00000000   Number         0  _printf_c.o ABSOLUTE
    ../clib/printf_percent.s                 0x00000000   Number         0  _printf_f.o ABSOLUTE
    ../clib/printf_percent.s                 0x00000000   Number         0  _printf_u.o ABSOLUTE
    ../clib/printf_percent.s                 0x00000000   Number         0  _printf_percent_end.o ABSOLUTE
    ../clib/printf_percent.s                 0x00000000   Number         0  _printf_d.o ABSOLUTE
    ../clib/signal.c                         0x00000000   Number         0  defsig_rtmem_outer.o ABSOLUTE
    ../clib/signal.c                         0x00000000   Number         0  defsig_rtmem_inner.o ABSOLUTE
    ../clib/signal.c                         0x00000000   Number         0  defsig_general.o ABSOLUTE
    ../clib/signal.c                         0x00000000   Number         0  defsig_segv_inner.o ABSOLUTE
    ../clib/signal.c                         0x00000000   Number         0  defsig_other.o ABSOLUTE
    ../clib/signal.c                         0x00000000   Number         0  defsig_stak_inner.o ABSOLUTE
    ../clib/signal.c                         0x00000000   Number         0  defsig_cppl_inner.o ABSOLUTE
    ../clib/signal.c                         0x00000000   Number         0  defsig_rtred_inner.o ABSOLUTE
    ../clib/signal.c                         0x00000000   Number         0  defsig_abrt_inner.o ABSOLUTE
    ../clib/signal.c                         0x00000000   Number         0  defsig_pvfn_inner.o ABSOLUTE
    ../clib/signal.c                         0x00000000   Number         0  defsig_fpe_inner.o ABSOLUTE
    ../clib/signal.c                         0x00000000   Number         0  defsig_exit.o ABSOLUTE
    ../clib/signal.c                         0x00000000   Number         0  defsig_rtmem_formal.o ABSOLUTE
    ../clib/signal.c                         0x00000000   Number         0  __raise.o ABSOLUTE
    ../clib/signal.c                         0x00000000   Number         0  defsig_fpe_outer.o ABSOLUTE
    ../clib/signal.c                         0x00000000   Number         0  defsig_fpe_formal.o ABSOLUTE
    ../clib/signal.s                         0x00000000   Number         0  defsig.o ABSOLUTE
    ../clib/stdio.c                          0x00000000   Number         0  ferror_locked.o ABSOLUTE
    ../clib/stdio.c                          0x00000000   Number         0  ferror.o ABSOLUTE
    ../clib/stdlib.c                         0x00000000   Number         0  exit.o ABSOLUTE
    ../clib/string.c                         0x00000000   Number         0  strcpy.o ABSOLUTE
    ../clib/string.c                         0x00000000   Number         0  strlen.o ABSOLUTE
    ../fplib/d2f.s                           0x00000000   Number         0  d2f_clz.o ABSOLUTE
    ../fplib/dcmpi.s                         0x00000000   Number         0  dcmpi.o ABSOLUTE
    ../fplib/dflt.s                          0x00000000   Number         0  dflt_clz.o ABSOLUTE
    ../fplib/dleqf.s                         0x00000000   Number         0  dleqf.o ABSOLUTE
    ../fplib/dnaninf.s                       0x00000000   Number         0  dnaninf.o ABSOLUTE
    ../fplib/drenorm.s                       0x00000000   Number         0  drenorm_clz.o ABSOLUTE
    ../fplib/dretinf.s                       0x00000000   Number         0  dretinf.o ABSOLUTE
    ../fplib/drleqf.s                        0x00000000   Number         0  drleqf.o ABSOLUTE
    ../fplib/dunder.s                        0x00000000   Number         0  dunder_clz.o ABSOLUTE
    ../fplib/except.s                        0x00000000   Number         0  except.o ABSOLUTE
    ../fplib/f2d.s                           0x00000000   Number         0  f2d.o ABSOLUTE
    ../fplib/fnaninf.s                       0x00000000   Number         0  fnaninf.o ABSOLUTE
    ../fplib/fpinit.s                        0x00000000   Number         0  fpinit.o ABSOLUTE
    ../fplib/fretinf.s                       0x00000000   Number         0  fretinf.o ABSOLUTE
    ../fplib/funder.s                        0x00000000   Number         0  funder_clz.o ABSOLUTE
    ../fplib/istatus.s                       0x00000000   Number         0  istatus.o ABSOLUTE
    ../fplib/printf1.s                       0x00000000   Number         0  printf1.o ABSOLUTE
    ../fplib/retnan.s                        0x00000000   Number         0  retnan.o ABSOLUTE
    ../fplib/trapv.s                         0x00000000   Number         0  trapv.o ABSOLUTE
    ../fplib/usenofp.s                       0x00000000   Number         0  usenofp.o ABSOLUTE
    ../mathlib/acosf.c                       0x00000000   Number         0  acosf_x.o ABSOLUTE
    ../mathlib/acosf.c                       0x00000000   Number         0  acosf.o ABSOLUTE
    ../mathlib/asinf.c                       0x00000000   Number         0  asinf.o ABSOLUTE
    ../mathlib/asinf.c                       0x00000000   Number         0  asinf_x.o ABSOLUTE
    ../mathlib/atan2f.c                      0x00000000   Number         0  atan2f.o ABSOLUTE
    ../mathlib/atan2f.c                      0x00000000   Number         0  atan2f_x.o ABSOLUTE
    ../mathlib/fabs.c                        0x00000000   Number         0  fabs.o ABSOLUTE
    ../mathlib/fpclassify.c                  0x00000000   Number         0  fpclassify.o ABSOLUTE
    ../mathlib/fpclassifyf.c                 0x00000000   Number         0  fpclassifyf.o ABSOLUTE
    ../mathlib/funder.c                      0x00000000   Number         0  funder.o ABSOLUTE
    ../mathlib/rredf.c                       0x00000000   Number         0  rredf.o ABSOLUTE
    ../mathlib/sqrtf.c                       0x00000000   Number         0  sqrtf_full_x.o ABSOLUTE
    ../mathlib/sqrtf.c                       0x00000000   Number         0  sqrtf_full.o ABSOLUTE
    ../mathlib/tanf.c                        0x00000000   Number         0  tanf.o ABSOLUTE
    ../mathlib/tanf.c                        0x00000000   Number         0  tanf_x.o ABSOLUTE
    ..\AHRS\AHRS_middleware.c                0x00000000   Number         0  ahrs_middleware.o ABSOLUTE
    ..\AHRS\ist8310driver.c                  0x00000000   Number         0  ist8310driver.o ABSOLUTE
    ..\AHRS\ist8310driver_middleware.c       0x00000000   Number         0  ist8310driver_middleware.o ABSOLUTE
    ..\AHRS\mpu6500driver.c                  0x00000000   Number         0  mpu6500driver.o ABSOLUTE
    ..\AHRS\mpu6500driver_middleware.c       0x00000000   Number         0  mpu6500driver_middleware.o ABSOLUTE
    ..\App\INS_task.c                        0x00000000   Number         0  ins_task.o ABSOLUTE
    ..\App\Referee_DispatchTask.c            0x00000000   Number         0  referee_dispatchtask.o ABSOLUTE
    ..\App\calibrate_task.c                  0x00000000   Number         0  calibrate_task.o ABSOLUTE
    ..\App\chassis_behaviour.c               0x00000000   Number         0  chassis_behaviour.o ABSOLUTE
    ..\App\chassis_task.c                    0x00000000   Number         0  chassis_task.o ABSOLUTE
    ..\App\circular_buffer.c                 0x00000000   Number         0  circular_buffer.o ABSOLUTE
    ..\App\detect_task.c                     0x00000000   Number         0  detect_task.o ABSOLUTE
    ..\App\gimbal_behaviour.c                0x00000000   Number         0  gimbal_behaviour.o ABSOLUTE
    ..\App\gimbal_task.c                     0x00000000   Number         0  gimbal_task.o ABSOLUTE
    ..\App\pid.c                             0x00000000   Number         0  pid.o ABSOLUTE
    ..\App\shoot.c                           0x00000000   Number         0  shoot.o ABSOLUTE
    ..\App\start_task.c                      0x00000000   Number         0  start_task.o ABSOLUTE
    ..\App\user_lib.c                        0x00000000   Number         0  user_lib.o ABSOLUTE
    ..\BSP\BasicPeripherals.c                0x00000000   Number         0  basicperipherals.o ABSOLUTE
    ..\BSP\FrictionMoterPWM.c                0x00000000   Number         0  frictionmoterpwm.o ABSOLUTE
    ..\BSP\MainFocus_Usart.c                 0x00000000   Number         0  mainfocus_usart.o ABSOLUTE
    ..\BSP\MotorCAN.c                        0x00000000   Number         0  motorcan.o ABSOLUTE
    ..\BSP\RemotDbus.c                       0x00000000   Number         0  remotdbus.o ABSOLUTE
    ..\BSP\adc.c                             0x00000000   Number         0  adc.o ABSOLUTE
    ..\BSP\buzzer.c                          0x00000000   Number         0  buzzer.o ABSOLUTE
    ..\BSP\exit_init.c                       0x00000000   Number         0  exit_init.o ABSOLUTE
    ..\BSP\flash.c                           0x00000000   Number         0  flash.o ABSOLUTE
    ..\BSP\power_ctrl.c                      0x00000000   Number         0  power_ctrl.o ABSOLUTE
    ..\BSP\spi.c                             0x00000000   Number         0  spi.o ABSOLUTE
    ..\BSP\stmflash.c                        0x00000000   Number         0  stmflash.o ABSOLUTE
    ..\BSP\timer.c                           0x00000000   Number         0  timer.o ABSOLUTE
    ..\BSP\usart6.c                          0x00000000   Number         0  usart6.o ABSOLUTE
    ..\CORE\startup_stm32f427_437xx.s        0x00000000   Number         0  startup_stm32f427_437xx.o ABSOLUTE
    ..\CommonTables\arm_common_tables.c      0x00000000   Number         0  arm_common_tables.o ABSOLUTE
    ..\FWLIB\src\misc.c                      0x00000000   Number         0  misc.o ABSOLUTE
    ..\FWLIB\src\stm32f4xx_adc.c             0x00000000   Number         0  stm32f4xx_adc.o ABSOLUTE
    ..\FWLIB\src\stm32f4xx_can.c             0x00000000   Number         0  stm32f4xx_can.o ABSOLUTE
    ..\FWLIB\src\stm32f4xx_dma.c             0x00000000   Number         0  stm32f4xx_dma.o ABSOLUTE
    ..\FWLIB\src\stm32f4xx_exti.c            0x00000000   Number         0  stm32f4xx_exti.o ABSOLUTE
    ..\FWLIB\src\stm32f4xx_flash.c           0x00000000   Number         0  stm32f4xx_flash.o ABSOLUTE
    ..\FWLIB\src\stm32f4xx_gpio.c            0x00000000   Number         0  stm32f4xx_gpio.o ABSOLUTE
    ..\FWLIB\src\stm32f4xx_iwdg.c            0x00000000   Number         0  stm32f4xx_iwdg.o ABSOLUTE
    ..\FWLIB\src\stm32f4xx_rcc.c             0x00000000   Number         0  stm32f4xx_rcc.o ABSOLUTE
    ..\FWLIB\src\stm32f4xx_spi.c             0x00000000   Number         0  stm32f4xx_spi.o ABSOLUTE
    ..\FWLIB\src\stm32f4xx_syscfg.c          0x00000000   Number         0  stm32f4xx_syscfg.o ABSOLUTE
    ..\FWLIB\src\stm32f4xx_tim.c             0x00000000   Number         0  stm32f4xx_tim.o ABSOLUTE
    ..\FWLIB\src\stm32f4xx_usart.c           0x00000000   Number         0  stm32f4xx_usart.o ABSOLUTE
    ..\FastMathFunctions\arm_cos_f32.c       0x00000000   Number         0  arm_cos_f32.o ABSOLUTE
    ..\FastMathFunctions\arm_sin_f32.c       0x00000000   Number         0  arm_sin_f32.o ABSOLUTE
    ..\FreeRTOS\croutine.c                   0x00000000   Number         0  croutine.o ABSOLUTE
    ..\FreeRTOS\event_groups.c               0x00000000   Number         0  event_groups.o ABSOLUTE
    ..\FreeRTOS\list.c                       0x00000000   Number         0  list.o ABSOLUTE
    ..\FreeRTOS\portable\MemMang\heap_4.c    0x00000000   Number         0  heap_4.o ABSOLUTE
    ..\FreeRTOS\portable\RVDS\ARM_CM4F\port.c 0x00000000   Number         0  port.o ABSOLUTE
    ..\FreeRTOS\queue.c                      0x00000000   Number         0  queue.o ABSOLUTE
    ..\FreeRTOS\stream_buffer.c              0x00000000   Number         0  stream_buffer.o ABSOLUTE
    ..\FreeRTOS\tasks.c                      0x00000000   Number         0  tasks.o ABSOLUTE
    ..\FreeRTOS\timers.c                     0x00000000   Number         0  timers.o ABSOLUTE
    ..\SYSTEM\delay\delay.c                  0x00000000   Number         0  delay.o ABSOLUTE
    ..\SYSTEM\sys\sys.c                      0x00000000   Number         0  sys.o ABSOLUTE
    ..\SYSTEM\usart\usart.c                  0x00000000   Number         0  usart.o ABSOLUTE
    ..\Task\Auto_attackTask.c                0x00000000   Number         0  auto_attacktask.o ABSOLUTE
    ..\User\AHRS\AHRS.c                      0x00000000   Number         0  ahrs.o ABSOLUTE
    ..\\AHRS\\AHRS_middleware.c              0x00000000   Number         0  ahrs_middleware.o ABSOLUTE
    ..\\AHRS\\ist8310driver.c                0x00000000   Number         0  ist8310driver.o ABSOLUTE
    ..\\AHRS\\ist8310driver_middleware.c     0x00000000   Number         0  ist8310driver_middleware.o ABSOLUTE
    ..\\AHRS\\mpu6500driver.c                0x00000000   Number         0  mpu6500driver.o ABSOLUTE
    ..\\AHRS\\mpu6500driver_middleware.c     0x00000000   Number         0  mpu6500driver_middleware.o ABSOLUTE
    ..\\App\\INS_task.c                      0x00000000   Number         0  ins_task.o ABSOLUTE
    ..\\App\\Referee_DispatchTask.c          0x00000000   Number         0  referee_dispatchtask.o ABSOLUTE
    ..\\App\\calibrate_task.c                0x00000000   Number         0  calibrate_task.o ABSOLUTE
    ..\\App\\chassis_behaviour.c             0x00000000   Number         0  chassis_behaviour.o ABSOLUTE
    ..\\App\\chassis_task.c                  0x00000000   Number         0  chassis_task.o ABSOLUTE
    ..\\App\\detect_task.c                   0x00000000   Number         0  detect_task.o ABSOLUTE
    ..\\App\\gimbal_behaviour.c              0x00000000   Number         0  gimbal_behaviour.o ABSOLUTE
    ..\\App\\gimbal_task.c                   0x00000000   Number         0  gimbal_task.o ABSOLUTE
    ..\\App\\pid.c                           0x00000000   Number         0  pid.o ABSOLUTE
    ..\\App\\shoot.c                         0x00000000   Number         0  shoot.o ABSOLUTE
    ..\\App\\start_task.c                    0x00000000   Number         0  start_task.o ABSOLUTE
    ..\\App\\user_lib.c                      0x00000000   Number         0  user_lib.o ABSOLUTE
    ..\\BSP\\BasicPeripherals.c              0x00000000   Number         0  basicperipherals.o ABSOLUTE
    ..\\BSP\\FrictionMoterPWM.c              0x00000000   Number         0  frictionmoterpwm.o ABSOLUTE
    ..\\BSP\\MainFocus_Usart.c               0x00000000   Number         0  mainfocus_usart.o ABSOLUTE
    ..\\BSP\\MotorCAN.c                      0x00000000   Number         0  motorcan.o ABSOLUTE
    ..\\BSP\\RemotDbus.c                     0x00000000   Number         0  remotdbus.o ABSOLUTE
    ..\\BSP\\adc.c                           0x00000000   Number         0  adc.o ABSOLUTE
    ..\\BSP\\buzzer.c                        0x00000000   Number         0  buzzer.o ABSOLUTE
    ..\\BSP\\exit_init.c                     0x00000000   Number         0  exit_init.o ABSOLUTE
    ..\\BSP\\flash.c                         0x00000000   Number         0  flash.o ABSOLUTE
    ..\\BSP\\power_ctrl.c                    0x00000000   Number         0  power_ctrl.o ABSOLUTE
    ..\\BSP\\spi.c                           0x00000000   Number         0  spi.o ABSOLUTE
    ..\\BSP\\stmflash.c                      0x00000000   Number         0  stmflash.o ABSOLUTE
    ..\\BSP\\timer.c                         0x00000000   Number         0  timer.o ABSOLUTE
    ..\\BSP\\usart6.c                        0x00000000   Number         0  usart6.o ABSOLUTE
    ..\\CommonTables\\arm_common_tables.c    0x00000000   Number         0  arm_common_tables.o ABSOLUTE
    ..\\FWLIB\\src\\misc.c                   0x00000000   Number         0  misc.o ABSOLUTE
    ..\\FWLIB\\src\\stm32f4xx_adc.c          0x00000000   Number         0  stm32f4xx_adc.o ABSOLUTE
    ..\\FWLIB\\src\\stm32f4xx_can.c          0x00000000   Number         0  stm32f4xx_can.o ABSOLUTE
    ..\\FWLIB\\src\\stm32f4xx_dma.c          0x00000000   Number         0  stm32f4xx_dma.o ABSOLUTE
    ..\\FWLIB\\src\\stm32f4xx_exti.c         0x00000000   Number         0  stm32f4xx_exti.o ABSOLUTE
    ..\\FWLIB\\src\\stm32f4xx_flash.c        0x00000000   Number         0  stm32f4xx_flash.o ABSOLUTE
    ..\\FWLIB\\src\\stm32f4xx_gpio.c         0x00000000   Number         0  stm32f4xx_gpio.o ABSOLUTE
    ..\\FWLIB\\src\\stm32f4xx_iwdg.c         0x00000000   Number         0  stm32f4xx_iwdg.o ABSOLUTE
    ..\\FWLIB\\src\\stm32f4xx_rcc.c          0x00000000   Number         0  stm32f4xx_rcc.o ABSOLUTE
    ..\\FWLIB\\src\\stm32f4xx_spi.c          0x00000000   Number         0  stm32f4xx_spi.o ABSOLUTE
    ..\\FWLIB\\src\\stm32f4xx_syscfg.c       0x00000000   Number         0  stm32f4xx_syscfg.o ABSOLUTE
    ..\\FWLIB\\src\\stm32f4xx_tim.c          0x00000000   Number         0  stm32f4xx_tim.o ABSOLUTE
    ..\\FWLIB\\src\\stm32f4xx_usart.c        0x00000000   Number         0  stm32f4xx_usart.o ABSOLUTE
    ..\\FastMathFunctions\\arm_cos_f32.c     0x00000000   Number         0  arm_cos_f32.o ABSOLUTE
    ..\\FastMathFunctions\\arm_sin_f32.c     0x00000000   Number         0  arm_sin_f32.o ABSOLUTE
    ..\\FreeRTOS\\portable\\RVDS\\ARM_CM4F\\port.c 0x00000000   Number         0  port.o ABSOLUTE
    ..\\SYSTEM\\delay\\delay.c               0x00000000   Number         0  delay.o ABSOLUTE
    ..\\SYSTEM\\sys\\sys.c                   0x00000000   Number         0  sys.o ABSOLUTE
    ..\\SYSTEM\\usart\\usart.c               0x00000000   Number         0  usart.o ABSOLUTE
    ..\\Task\\Auto_attackTask.c              0x00000000   Number         0  auto_attacktask.o ABSOLUTE
    dc.s                                     0x00000000   Number         0  dc.o ABSOLUTE
    main.c                                   0x00000000   Number         0  main.o ABSOLUTE
    main.c                                   0x00000000   Number         0  main.o ABSOLUTE
    stm32f4xx_it.c                           0x00000000   Number         0  stm32f4xx_it.o ABSOLUTE
    stm32f4xx_it.c                           0x00000000   Number         0  stm32f4xx_it.o ABSOLUTE
    system_stm32f4xx.c                       0x00000000   Number         0  system_stm32f4xx.o ABSOLUTE
    system_stm32f4xx.c                       0x00000000   Number         0  system_stm32f4xx.o ABSOLUTE
    RESET                                    0x08000000   Section      428  startup_stm32f427_437xx.o(RESET)
    !!!main                                  0x080001ac   Section        8  __main.o(!!!main)
    !!!scatter                               0x080001b4   Section       52  __scatter.o(!!!scatter)
    !!dczerorl2                              0x080001e8   Section       90  __dczerorl2.o(!!dczerorl2)
    !!handler_zi                             0x08000244   Section       28  __scatter_zi.o(!!handler_zi)
    .ARM.Collect$$_printf_percent$$00000000  0x08000260   Section        0  _printf_percent.o(.ARM.Collect$$_printf_percent$$00000000)
    .ARM.Collect$$_printf_percent$$00000003  0x08000260   Section        6  _printf_f.o(.ARM.Collect$$_printf_percent$$00000003)
    .ARM.Collect$$_printf_percent$$00000009  0x08000266   Section        6  _printf_d.o(.ARM.Collect$$_printf_percent$$00000009)
    .ARM.Collect$$_printf_percent$$0000000A  0x0800026c   Section        6  _printf_u.o(.ARM.Collect$$_printf_percent$$0000000A)
    .ARM.Collect$$_printf_percent$$00000013  0x08000272   Section        6  _printf_c.o(.ARM.Collect$$_printf_percent$$00000013)
    .ARM.Collect$$_printf_percent$$00000017  0x08000278   Section        4  _printf_percent_end.o(.ARM.Collect$$_printf_percent$$00000017)
    .ARM.Collect$$libinit$$00000000          0x0800027c   Section        2  libinit.o(.ARM.Collect$$libinit$$00000000)
    .ARM.Collect$$libinit$$00000001          0x0800027e   Section        4  libinit2.o(.ARM.Collect$$libinit$$00000001)
    .ARM.Collect$$libinit$$00000004          0x08000282   Section        0  libinit2.o(.ARM.Collect$$libinit$$00000004)
    .ARM.Collect$$libinit$$00000005          0x08000282   Section        8  libinit2.o(.ARM.Collect$$libinit$$00000005)
    .ARM.Collect$$libinit$$0000000A          0x0800028a   Section        0  libinit2.o(.ARM.Collect$$libinit$$0000000A)
    .ARM.Collect$$libinit$$0000000C          0x0800028a   Section        0  libinit2.o(.ARM.Collect$$libinit$$0000000C)
    .ARM.Collect$$libinit$$0000000E          0x0800028a   Section        0  libinit2.o(.ARM.Collect$$libinit$$0000000E)
    .ARM.Collect$$libinit$$0000000F          0x0800028a   Section        6  libinit2.o(.ARM.Collect$$libinit$$0000000F)
    .ARM.Collect$$libinit$$00000011          0x08000290   Section        0  libinit2.o(.ARM.Collect$$libinit$$00000011)
    .ARM.Collect$$libinit$$00000013          0x08000290   Section        0  libinit2.o(.ARM.Collect$$libinit$$00000013)
    .ARM.Collect$$libinit$$00000015          0x08000290   Section        0  libinit2.o(.ARM.Collect$$libinit$$00000015)
    .ARM.Collect$$libinit$$00000016          0x08000290   Section       10  libinit2.o(.ARM.Collect$$libinit$$00000016)
    .ARM.Collect$$libinit$$00000017          0x0800029a   Section        0  libinit2.o(.ARM.Collect$$libinit$$00000017)
    .ARM.Collect$$libinit$$00000019          0x0800029a   Section        0  libinit2.o(.ARM.Collect$$libinit$$00000019)
    .ARM.Collect$$libinit$$0000001B          0x0800029a   Section        0  libinit2.o(.ARM.Collect$$libinit$$0000001B)
    .ARM.Collect$$libinit$$0000001D          0x0800029a   Section        0  libinit2.o(.ARM.Collect$$libinit$$0000001D)
    .ARM.Collect$$libinit$$0000001F          0x0800029a   Section        0  libinit2.o(.ARM.Collect$$libinit$$0000001F)
    .ARM.Collect$$libinit$$00000021          0x0800029a   Section        0  libinit2.o(.ARM.Collect$$libinit$$00000021)
    .ARM.Collect$$libinit$$00000023          0x0800029a   Section        0  libinit2.o(.ARM.Collect$$libinit$$00000023)
    .ARM.Collect$$libinit$$00000025          0x0800029a   Section        0  libinit2.o(.ARM.Collect$$libinit$$00000025)
    .ARM.Collect$$libinit$$0000002C          0x0800029a   Section        0  libinit2.o(.ARM.Collect$$libinit$$0000002C)
    .ARM.Collect$$libinit$$0000002E          0x0800029a   Section        0  libinit2.o(.ARM.Collect$$libinit$$0000002E)
    .ARM.Collect$$libinit$$00000030          0x0800029a   Section        0  libinit2.o(.ARM.Collect$$libinit$$00000030)
    .ARM.Collect$$libinit$$00000032          0x0800029a   Section        0  libinit2.o(.ARM.Collect$$libinit$$00000032)
    .ARM.Collect$$libinit$$00000033          0x0800029a   Section        2  libinit2.o(.ARM.Collect$$libinit$$00000033)
    .ARM.Collect$$libshutdown$$00000000      0x0800029c   Section        2  libshutdown.o(.ARM.Collect$$libshutdown$$00000000)
    .ARM.Collect$$libshutdown$$00000003      0x0800029e   Section        0  libshutdown2.o(.ARM.Collect$$libshutdown$$00000003)
    .ARM.Collect$$libshutdown$$00000006      0x0800029e   Section        0  libshutdown2.o(.ARM.Collect$$libshutdown$$00000006)
    .ARM.Collect$$libshutdown$$00000009      0x0800029e   Section        0  libshutdown2.o(.ARM.Collect$$libshutdown$$00000009)
    .ARM.Collect$$libshutdown$$0000000B      0x0800029e   Section        0  libshutdown2.o(.ARM.Collect$$libshutdown$$0000000B)
    .ARM.Collect$$libshutdown$$0000000E      0x0800029e   Section        0  libshutdown2.o(.ARM.Collect$$libshutdown$$0000000E)
    .ARM.Collect$$libshutdown$$0000000F      0x0800029e   Section        2  libshutdown2.o(.ARM.Collect$$libshutdown$$0000000F)
    .ARM.Collect$$rtentry$$00000000          0x080002a0   Section        0  __rtentry.o(.ARM.Collect$$rtentry$$00000000)
    .ARM.Collect$$rtentry$$00000002          0x080002a0   Section        0  __rtentry2.o(.ARM.Collect$$rtentry$$00000002)
    .ARM.Collect$$rtentry$$00000004          0x080002a0   Section        6  __rtentry4.o(.ARM.Collect$$rtentry$$00000004)
    .ARM.Collect$$rtentry$$00000009          0x080002a6   Section        0  __rtentry2.o(.ARM.Collect$$rtentry$$00000009)
    .ARM.Collect$$rtentry$$0000000A          0x080002a6   Section        4  __rtentry2.o(.ARM.Collect$$rtentry$$0000000A)
    .ARM.Collect$$rtentry$$0000000C          0x080002aa   Section        0  __rtentry2.o(.ARM.Collect$$rtentry$$0000000C)
    .ARM.Collect$$rtentry$$0000000D          0x080002aa   Section        8  __rtentry2.o(.ARM.Collect$$rtentry$$0000000D)
    .ARM.Collect$$rtexit$$00000000           0x080002b2   Section        2  rtexit.o(.ARM.Collect$$rtexit$$00000000)
    .ARM.Collect$$rtexit$$00000002           0x080002b4   Section        0  rtexit2.o(.ARM.Collect$$rtexit$$00000002)
    .ARM.Collect$$rtexit$$00000003           0x080002b4   Section        4  rtexit2.o(.ARM.Collect$$rtexit$$00000003)
    .ARM.Collect$$rtexit$$00000004           0x080002b8   Section        6  rtexit2.o(.ARM.Collect$$rtexit$$00000004)
    .emb_text                                0x080002c0   Section      190  port.o(.emb_text)
    $v0                                      0x080002c0   Number         0  port.o(.emb_text)
    .emb_text                                0x08000380   Section        0  maybetermalloc1.o(.emb_text)
    .text                                    0x08000380   Section        0  main.o(.text)
    .text                                    0x08000400   Section        0  stm32f4xx_it.o(.text)
    .text                                    0x080006d4   Section        0  system_stm32f4xx.o(.text)
    SetSysClock                              0x080006d5   Thumb Code   272  system_stm32f4xx.o(.text)
    .text                                    0x08000918   Section        0  basicperipherals.o(.text)
    LEDConfig                                0x08000919   Thumb Code   128  basicperipherals.o(.text)
    Key_init                                 0x08000999   Thumb Code   120  basicperipherals.o(.text)
    LaserConfig                              0x08000a11   Thumb Code    50  basicperipherals.o(.text)
    BulletLimitConfig                        0x08000a43   Thumb Code    42  basicperipherals.o(.text)
    .text                                    0x08000ce8   Section        0  remotdbus.o(.text)
    RC_abs                                   0x08000e95   Thumb Code    16  remotdbus.o(.text)
    .text                                    0x08001044   Section        0  frictionmoterpwm.o(.text)
    .text                                    0x08001174   Section        0  motorcan.o(.text)
    MotorCAN1_Init                           0x08001175   Thumb Code   264  motorcan.o(.text)
    MotorCAN2_Init                           0x0800127d   Thumb Code   284  motorcan.o(.text)
    .text                                    0x08001734   Section        0  mainfocus_usart.o(.text)
    .text                                    0x080018f8   Section        0  adc.o(.text)
    temperature_ADC_Reset                    0x080018f9   Thumb Code    38  adc.o(.text)
    get_ADC                                  0x0800196f   Thumb Code    52  adc.o(.text)
    .text                                    0x08001a04   Section        0  buzzer.o(.text)
    .text                                    0x08001adc   Section        0  exit_init.o(.text)
    .text                                    0x08001b64   Section        0  flash.o(.text)
    Get_Next_Flash_Address                   0x08001b65   Thumb Code   380  flash.o(.text)
    GetSector                                0x08001ce1   Thumb Code   374  flash.o(.text)
    FLASH_Erase_Muli_Sector                  0x08001f0f   Thumb Code   166  flash.o(.text)
    .text                                    0x080020e0   Section        0  spi.o(.text)
    .text                                    0x08002330   Section        0  timer.o(.text)
    .text                                    0x0800260c   Section        0  power_ctrl.o(.text)
    .text                                    0x080026a0   Section        0  usart6.o(.text)
    .text                                    0x08002aac   Section        0  delay.o(.text)
    .text                                    0x08002b98   Section        0  usart.o(.text)
    .text                                    0x08002c48   Section       64  startup_stm32f427_437xx.o(.text)
    $v0                                      0x08002c48   Number         0  startup_stm32f427_437xx.o(.text)
    .text                                    0x08002c88   Section        0  misc.o(.text)
    .text                                    0x08002d68   Section        0  stm32f4xx_gpio.o(.text)
    .text                                    0x08002ffc   Section        0  stm32f4xx_rcc.o(.text)
    .text                                    0x0800365c   Section        0  stm32f4xx_syscfg.o(.text)
    .text                                    0x080036f0   Section        0  stm32f4xx_usart.o(.text)
    .text                                    0x08003b44   Section        0  stm32f4xx_can.o(.text)
    CheckITStatus                            0x08004347   Thumb Code    18  stm32f4xx_can.o(.text)
    .text                                    0x08004534   Section        0  stm32f4xx_dma.o(.text)
    .text                                    0x080048dc   Section        0  stm32f4xx_tim.o(.text)
    TI4_Config                               0x0800507b   Thumb Code    80  stm32f4xx_tim.o(.text)
    TI3_Config                               0x080050dd   Thumb Code    72  stm32f4xx_tim.o(.text)
    TI2_Config                               0x0800513f   Thumb Code    90  stm32f4xx_tim.o(.text)
    TI1_Config                               0x080051ab   Thumb Code    58  stm32f4xx_tim.o(.text)
    .text                                    0x08005580   Section        0  stm32f4xx_spi.o(.text)
    .text                                    0x08005a70   Section        0  stm32f4xx_flash.o(.text)
    .text                                    0x08006108   Section        0  stm32f4xx_exti.o(.text)
    .text                                    0x08006218   Section        0  stm32f4xx_adc.o(.text)
    .text                                    0x0800667c   Section        0  heap_4.o(.text)
    prvInsertBlockIntoFreeList               0x0800667d   Thumb Code    96  heap_4.o(.text)
    prvHeapInit                              0x080066dd   Thumb Code    98  heap_4.o(.text)
    .text                                    0x08006918   Section        0  port.o(.text)
    prvTaskExitError                         0x08006919   Thumb Code    60  port.o(.text)
    .text                                    0x08006c58   Section        0  list.o(.text)
    .text                                    0x08006cec   Section        0  queue.o(.text)
    prvInitialiseNewQueue                    0x08006d7f   Thumb Code    42  queue.o(.text)
    prvUnlockQueue                           0x08006e03   Thumb Code   126  queue.o(.text)
    prvIsQueueFull                           0x08006e81   Thumb Code    30  queue.o(.text)
    prvCopyDataToQueue                       0x08006e9f   Thumb Code   126  queue.o(.text)
    prvInitialiseMutex                       0x080070c1   Thumb Code    30  queue.o(.text)
    prvGetDisinheritPriorityAfterTimeout     0x0800714f   Thumb Code    20  queue.o(.text)
    prvIsQueueEmpty                          0x08007163   Thumb Code    26  queue.o(.text)
    prvCopyDataFromQueue                     0x080075b1   Thumb Code    42  queue.o(.text)
    .text                                    0x08007c04   Section        0  tasks.o(.text)
    prvInitialiseTaskLists                   0x08007c05   Thumb Code    70  tasks.o(.text)
    prvAddNewTaskToReadyList                 0x08007c4b   Thumb Code   156  tasks.o(.text)
    prvInitialiseNewTask                     0x08007ce7   Thumb Code   206  tasks.o(.text)
    prvResetNextTaskUnblockTime              0x08007e15   Thumb Code    42  tasks.o(.text)
    prvDeleteTCB                             0x08007e3f   Thumb Code    18  tasks.o(.text)
    prvAddCurrentTaskToDelayedList           0x08008163   Thumb Code   124  tasks.o(.text)
    prvTaskIsTaskSuspended                   0x080086a1   Thumb Code    80  tasks.o(.text)
    prvCheckTasksWaitingTermination          0x0800880f   Thumb Code    60  tasks.o(.text)
    prvIdleTask                              0x0800884b   Thumb Code    94  tasks.o(.text)
    prvSearchForNameWithinSingleList         0x0800898b   Thumb Code   176  tasks.o(.text)
    prvTaskCheckFreeStackSpace               0x08008ac9   Thumb Code    22  tasks.o(.text)
    prvListTasksWithinSingleList             0x08008b5d   Thumb Code   106  tasks.o(.text)
    prvWriteNameToBuffer                     0x08009203   Thumb Code    42  tasks.o(.text)
    .text                                    0x08009894   Section        0  timers.o(.text)
    prvInsertTimerInActiveList               0x08009895   Thumb Code    80  timers.o(.text)
    prvSwitchTimerLists                      0x08009963   Thumb Code   150  timers.o(.text)
    prvSampleTimeNow                         0x080099f9   Thumb Code    40  timers.o(.text)
    prvProcessReceivedCommands               0x08009a21   Thumb Code   240  timers.o(.text)
    prvProcessExpiredTimer                   0x08009b11   Thumb Code    94  timers.o(.text)
    prvProcessTimerOrBlockTask               0x08009b6f   Thumb Code   102  timers.o(.text)
    prvGetNextExpireTime                     0x08009bd5   Thumb Code    36  timers.o(.text)
    prvTimerTask                             0x08009bf9   Thumb Code    26  timers.o(.text)
    prvCheckForValidListAndQueue             0x08009c13   Thumb Code    72  timers.o(.text)
    prvInitialiseNewTimer                    0x08009cd1   Thumb Code    78  timers.o(.text)
    .text                                    0x08009e80   Section        0  calibrate_task.o(.text)
    cali_data_write                          0x08009e81   Thumb Code   124  calibrate_task.o(.text)
    RC_cmd_to_calibrate                      0x08009efd   Thumb Code   692  calibrate_task.o(.text)
    cali_data_read                           0x0800a315   Thumb Code   228  calibrate_task.o(.text)
    cali_head_hook                           0x0800a4a1   Thumb Code    74  calibrate_task.o(.text)
    cali_gyro_hook                           0x0800a4eb   Thumb Code    88  calibrate_task.o(.text)
    cali_gimbal_hook                         0x0800a543   Thumb Code   108  calibrate_task.o(.text)
    .text                                    0x0800a5f4   Section        0  detect_task.o(.text)
    DetectDisplay                            0x0800a5f5   Thumb Code   182  detect_task.o(.text)
    DetectInit                               0x0800a6ab   Thumb Code   362  detect_task.o(.text)
    .text                                    0x0800ac08   Section        0  gimbal_behaviour.o(.text)
    gimbal_behavour_set                      0x0800ac09   Thumb Code   872  gimbal_behaviour.o(.text)
    gimbal_auto_aim_control                  0x0800b035   Thumb Code    18  gimbal_behaviour.o(.text)
    gimbal_motionless_control                0x0800b047   Thumb Code    28  gimbal_behaviour.o(.text)
    gimbal_relative_angle_control            0x0800b063   Thumb Code    12  gimbal_behaviour.o(.text)
    gimbal_absolute_angle_control            0x0800b06f   Thumb Code   280  gimbal_behaviour.o(.text)
    gimbal_cali_control                      0x0800b187   Thumb Code   444  gimbal_behaviour.o(.text)
    gimbal_init_control                      0x0800b343   Thumb Code   158  gimbal_behaviour.o(.text)
    gimbal_zero_force_control                0x0800b3e1   Thumb Code    96  gimbal_behaviour.o(.text)
    .text                                    0x0800b610   Section        0  gimbal_task.o(.text)
    J_scope_gimbal_test                      0x0800b611   Thumb Code   242  gimbal_task.o(.text)
    GIMBAL_PID_Calc                          0x0800b703   Thumb Code   174  gimbal_task.o(.text)
    gimbal_motor_relative_angle_control      0x0800b7b1   Thumb Code    94  gimbal_task.o(.text)
    gimbal_motor_absolute_angle_control      0x0800b80f   Thumb Code    92  gimbal_task.o(.text)
    gimbal_motor_raw_angle_control           0x0800b86b   Thumb Code    34  gimbal_task.o(.text)
    GIMBAL_Control_loop                      0x0800b88d   Thumb Code   436  gimbal_task.o(.text)
    GIMBAL_relative_angle_limit              0x0800ba41   Thumb Code    74  gimbal_task.o(.text)
    GIMBAL_absolute_angle_limit              0x0800ba8b   Thumb Code   228  gimbal_task.o(.text)
    GIMBAL_Set_Contorl                       0x0800bb6f   Thumb Code   154  gimbal_task.o(.text)
    motor_ecd_to_angle_change                0x0800bc09   Thumb Code    48  gimbal_task.o(.text)
    GIMBAL_Feedback_Update                   0x0800bc39   Thumb Code    94  gimbal_task.o(.text)
    GIMBAL_Mode_Change_Control_Transit       0x0800bc97   Thumb Code   192  gimbal_task.o(.text)
    GIMBAL_Set_Mode                          0x0800bd57   Thumb Code    18  gimbal_task.o(.text)
    Gimbal_PID_clear                         0x0800bd69   Thumb Code    44  gimbal_task.o(.text)
    GIMBAL_PID_Init                          0x0800bd95   Thumb Code    44  gimbal_task.o(.text)
    GIMBAL_Init                              0x0800bdc1   Thumb Code   356  gimbal_task.o(.text)
    calc_gimbal_cali                         0x0800c051   Thumb Code   236  gimbal_task.o(.text)
    .text                                    0x0800c284   Section        0  ins_task.o(.text)
    IMU_temp_Control                         0x0800c285   Thumb Code   168  ins_task.o(.text)
    IMU_Cali_Slove                           0x0800c32d   Thumb Code   274  ins_task.o(.text)
    .text                                    0x0800c898   Section        0  pid.o(.text)
    .text                                    0x0800cb2c   Section        0  start_task.o(.text)
    .text                                    0x0800cdc4   Section        0  user_lib.o(.text)
    .text                                    0x0800d030   Section        0  auto_attacktask.o(.text)
    .text                                    0x0800d16c   Section        0  chassis_behaviour.o(.text)
    chassis_open_set_control                 0x0800d203   Thumb Code    92  chassis_behaviour.o(.text)
    chassis_no_follow_yaw_control            0x0800d25f   Thumb Code    64  chassis_behaviour.o(.text)
    chassis_engineer_follow_chassis_yaw_control 0x0800d29f   Thumb Code    84  chassis_behaviour.o(.text)
    chassis_infantry_follow_gimbal_yaw_control 0x0800d2f3   Thumb Code   258  chassis_behaviour.o(.text)
    chassis_no_move_control                  0x0800d3f5   Thumb Code    38  chassis_behaviour.o(.text)
    chassis_zero_force_control               0x0800d41b   Thumb Code    38  chassis_behaviour.o(.text)
    .text                                    0x0800d51c   Section        0  chassis_task.o(.text)
    chassis_vector_to_mecanum_wheel_speed    0x0800d51d   Thumb Code    74  chassis_task.o(.text)
    chassis_control_loop                     0x0800d567   Thumb Code   448  chassis_task.o(.text)
    chassis_set_contorl                      0x0800d727   Thumb Code   614  chassis_task.o(.text)
    chassis_feedback_update                  0x0800d98d   Thumb Code   344  chassis_task.o(.text)
    chassis_mode_change_control_transit      0x0800dae5   Thumb Code    82  chassis_task.o(.text)
    chassis_set_mode                         0x0800db37   Thumb Code    18  chassis_task.o(.text)
    chassis_init                             0x0800db49   Thumb Code   182  chassis_task.o(.text)
    CalcChassisMaxOutput                     0x0800ddf9   Thumb Code   128  chassis_task.o(.text)
    .text                                    0x0800de98   Section        0  shoot.o(.text)
    Shoot_Feedback_Update                    0x0800de99   Thumb Code  1312  shoot.o(.text)
    SetShootFreAndSpeed                      0x0800e5a1   Thumb Code   156  shoot.o(.text)
    Shoot_Set_Mode                           0x0800e63d   Thumb Code   372  shoot.o(.text)
    shoot_bullet_control                     0x0800eb73   Thumb Code   430  shoot.o(.text)
    shoot_done_control                       0x0800ed21   Thumb Code    88  shoot.o(.text)
    shoot_ready_control                      0x0800ed79   Thumb Code   934  shoot.o(.text)
    LevelToStopBulet                         0x0800f11f   Thumb Code   124  shoot.o(.text)
    .text                                    0x0800f1cc   Section        0  circular_buffer.o(.text)
    .text                                    0x0800f470   Section        0  referee_dispatchtask.o(.text)
    .text                                    0x0800f8a4   Section        0  ahrs_middleware.o(.text)
    .text                                    0x0800f998   Section        0  ist8310driver.o(.text)
    .text                                    0x0800fb34   Section        0  ist8310driver_middleware.o(.text)
    .text                                    0x0800fc74   Section        0  mpu6500driver.o(.text)
    .text                                    0x08010038   Section        0  mpu6500driver_middleware.o(.text)
    mpu6500_SPI_read_write_byte              0x080100a1   Thumb Code    78  mpu6500driver_middleware.o(.text)
    .text                                    0x080101a0   Section        0  arm_cos_f32.o(.text)
    .text                                    0x08010218   Section        0  arm_sin_f32.o(.text)
    .text                                    0x0801028c   Section        2  use_no_semi_2.o(.text)
    .text                                    0x0801028e   Section        0  calloc.o(.text)
    .text                                    0x080102b6   Section        0  h1_free.o(.text)
    .text                                    0x08010304   Section        0  noretval__2printf.o(.text)
    .text                                    0x0801031c   Section        0  noretval__2sprintf.o(.text)
    .text                                    0x08010344   Section        0  __printf.o(.text)
    .text                                    0x080103ac   Section        0  _printf_str.o(.text)
    .text                                    0x08010400   Section        0  _printf_dec.o(.text)
    .text                                    0x08010478   Section        0  strcpy.o(.text)
    .text                                    0x080104c0   Section        0  strlen.o(.text)
    .text                                    0x080104fe   Section      138  rt_memcpy_v6.o(.text)
    .text                                    0x08010588   Section      100  rt_memcpy_w.o(.text)
    .text                                    0x080105ec   Section       16  aeabi_memset.o(.text)
    .text                                    0x080105fc   Section       78  rt_memclr_w.o(.text)
    .text                                    0x0801064a   Section        0  heapauxi.o(.text)
    .text                                    0x08010650   Section        2  use_no_semi.o(.text)
    .text                                    0x08010654   Section        8  rt_heap_descriptor_intlibspace.o(.text)
    .text                                    0x0801065c   Section        0  hguard.o(.text)
    .text                                    0x08010660   Section        0  init_alloc.o(.text)
    .text                                    0x080106ea   Section        0  h1_alloc.o(.text)
    .text                                    0x08010748   Section        0  _rserrno.o(.text)
    .text                                    0x0801075e   Section        0  _printf_intcommon.o(.text)
    .text                                    0x08010810   Section        0  _printf_fp_dec.o(.text)
    _fp_digits                               0x08010813   Thumb Code   428  _printf_fp_dec.o(.text)
    .text                                    0x08010c2c   Section        0  _printf_char_common.o(.text)
    _printf_input_char                       0x08010c2d   Thumb Code    10  _printf_char_common.o(.text)
    .text                                    0x08010c5c   Section        0  _sputc.o(.text)
    .text                                    0x08010c66   Section        0  _printf_char.o(.text)
    .text                                    0x08010c94   Section        0  _printf_char_file.o(.text)
    .text                                    0x08010cb8   Section       68  rt_memclr.o(.text)
    .text                                    0x08010cfc   Section        8  libspace.o(.text)
    .text                                    0x08010d04   Section        8  rt_locale_intlibspace.o(.text)
    .text                                    0x08010d0c   Section        8  rt_errno_addr_intlibspace.o(.text)
    .text                                    0x08010d14   Section        0  h1_init.o(.text)
    .text                                    0x08010d22   Section        0  h1_extend.o(.text)
    .text                                    0x08010d56   Section      138  lludiv10.o(.text)
    .text                                    0x08010de0   Section        0  _fptrap.o(.text)
    .text                                    0x08010e10   Section        0  _printf_fp_infnan.o(.text)
    .text                                    0x08010e90   Section        0  bigflt0.o(.text)
    .text                                    0x08010f6c   Section        0  ferror.o(.text)
    .text                                    0x08010f74   Section        0  defsig_rtmem_outer.o(.text)
    .text                                    0x08010f82   Section       74  sys_stackheap_outer.o(.text)
    .text                                    0x08010fcc   Section        0  exit.o(.text)
    .text                                    0x08010fd8   Section        0  defsig_exit.o(.text)
    .text                                    0x08010fe2   Section        0  defsig_fpe_outer.o(.text)
    .text                                    0x08010ff0   Section        0  defsig_rtmem_inner.o(.text)
    .text                                    0x08011040   Section      128  strcmpv7m.o(.text)
    .text                                    0x080110c0   Section        0  defsig_general.o(.text)
    .text                                    0x080110f4   Section        0  defsig_fpe_inner.o(.text)
    CL$$btod_d2e                             0x080111a0   Section       62  btod.o(CL$$btod_d2e)
    CL$$btod_d2e_denorm_low                  0x080111de   Section       70  btod.o(CL$$btod_d2e_denorm_low)
    CL$$btod_d2e_norm_op1                    0x08011224   Section       96  btod.o(CL$$btod_d2e_norm_op1)
    CL$$btod_div_common                      0x08011284   Section      824  btod.o(CL$$btod_div_common)
    CL$$btod_e2e                             0x080115bc   Section      198  btod.o(CL$$btod_e2e)
    CL$$btod_ediv                            0x08011682   Section       40  btod.o(CL$$btod_ediv)
    CL$$btod_emul                            0x080116aa   Section       40  btod.o(CL$$btod_emul)
    CL$$btod_mult_common                     0x080116d2   Section      580  btod.o(CL$$btod_mult_common)
    i.AHRS_fabs                              0x08011916   Section        0  ahrs.o(i.AHRS_fabs)
    AHRS_fabs                                0x08011917   Thumb Code    26  ahrs.o(i.AHRS_fabs)
    i.AHRS_init                              0x08011930   Section        0  ahrs.o(i.AHRS_init)
    i.AHRS_update                            0x08011bcc   Section        0  ahrs.o(i.AHRS_update)
    i.__ARM_fpclassify                       0x08011d06   Section        0  fpclassify.o(i.__ARM_fpclassify)
    i.__ARM_fpclassifyf                      0x08011d36   Section        0  fpclassifyf.o(i.__ARM_fpclassifyf)
    i.__hardfp_acosf                         0x08011d5c   Section        0  acosf.o(i.__hardfp_acosf)
    i.__hardfp_asinf                         0x08011e74   Section        0  asinf.o(i.__hardfp_asinf)
    i.__hardfp_atan2f                        0x08011fa0   Section        0  atan2f.o(i.__hardfp_atan2f)
    i.__hardfp_fabs                          0x080121f0   Section        0  fabs.o(i.__hardfp_fabs)
    i.__hardfp_tanf                          0x08012204   Section        0  tanf.o(i.__hardfp_tanf)
    i.__mathlib_flt_infnan                   0x08012380   Section        0  funder.o(i.__mathlib_flt_infnan)
    i.__mathlib_flt_infnan2                  0x08012386   Section        0  funder.o(i.__mathlib_flt_infnan2)
    i.__mathlib_flt_invalid                  0x0801238c   Section        0  funder.o(i.__mathlib_flt_invalid)
    i.__mathlib_flt_underflow                0x0801239c   Section        0  funder.o(i.__mathlib_flt_underflow)
    i.__mathlib_rredf2                       0x080123ac   Section        0  rredf.o(i.__mathlib_rredf2)
    i.accel_comple_filter                    0x08012500   Section        0  ahrs.o(i.accel_comple_filter)
    accel_comple_filter                      0x08012501   Thumb Code   454  ahrs.o(i.accel_comple_filter)
    i.accel_update_kp_ki                     0x080126d0   Section        0  ahrs.o(i.accel_update_kp_ki)
    accel_update_kp_ki                       0x080126d1   Thumb Code   370  ahrs.o(i.accel_update_kp_ki)
    i.angle_to_quat                          0x0801285c   Section        0  ahrs.o(i.angle_to_quat)
    angle_to_quat                            0x0801285d   Thumb Code   364  ahrs.o(i.angle_to_quat)
    i.get_angle                              0x080129c8   Section        0  ahrs.o(i.get_angle)
    i.quat_normalization                     0x08012ab0   Section        0  ahrs.o(i.quat_normalization)
    quat_normalization                       0x08012ab1   Thumb Code   126  ahrs.o(i.quat_normalization)
    i.sqrtf                                  0x08012b34   Section        0  sqrtf_full.o(i.sqrtf)
    i.update_w                               0x08012b72   Section        0  ahrs.o(i.update_w)
    update_w                                 0x08012b73   Thumb Code   122  ahrs.o(i.update_w)
    locale$$code                             0x08012bec   Section       44  lc_numeric_c.o(locale$$code)
    x$fpl$d2f                                0x08012c18   Section      708  d2f_clz.o(x$fpl$d2f)
    $v0                                      0x08012c18   Number         0  d2f_clz.o(x$fpl$d2f)
    x$fpl$dcmpinf                            0x08012edc   Section       24  dcmpi.o(x$fpl$dcmpinf)
    $v0                                      0x08012edc   Number         0  dcmpi.o(x$fpl$dcmpinf)
    x$fpl$dfltn                              0x08012ef4   Section       26  dflt_clz.o(x$fpl$dfltn)
    $v0                                      0x08012ef4   Number         0  dflt_clz.o(x$fpl$dfltn)
    x$fpl$dleqf                              0x08012f10   Section      120  dleqf.o(x$fpl$dleqf)
    $v0                                      0x08012f10   Number         0  dleqf.o(x$fpl$dleqf)
    x$fpl$dnaninf                            0x08012f88   Section      258  dnaninf.o(x$fpl$dnaninf)
    $v0                                      0x08012f88   Number         0  dnaninf.o(x$fpl$dnaninf)
    x$fpl$drenorm                            0x0801308a   Section      112  drenorm_clz.o(x$fpl$drenorm)
    $v0                                      0x0801308a   Number         0  drenorm_clz.o(x$fpl$drenorm)
    x$fpl$dretinf                            0x080130fa   Section       12  dretinf.o(x$fpl$dretinf)
    $v0                                      0x080130fa   Number         0  dretinf.o(x$fpl$dretinf)
    x$fpl$drleqf                             0x08013106   Section       98  drleqf.o(x$fpl$drleqf)
    $v0                                      0x08013106   Number         0  drleqf.o(x$fpl$drleqf)
    x$fpl$dunder                             0x08013168   Section      378  dunder_clz.o(x$fpl$dunder)
    $v0                                      0x08013168   Number         0  dunder_clz.o(x$fpl$dunder)
    x$fpl$exception                          0x080132e4   Section      492  except.o(x$fpl$exception)
    $v0                                      0x080132e4   Number         0  except.o(x$fpl$exception)
    x$fpl$f2d                                0x080134d0   Section      122  f2d.o(x$fpl$f2d)
    $v0                                      0x080134d0   Number         0  f2d.o(x$fpl$f2d)
    x$fpl$fnaninf                            0x0801354a   Section      242  fnaninf.o(x$fpl$fnaninf)
    $v0                                      0x0801354a   Number         0  fnaninf.o(x$fpl$fnaninf)
    x$fpl$fpinit                             0x0801363c   Section       10  fpinit.o(x$fpl$fpinit)
    $v0                                      0x0801363c   Number         0  fpinit.o(x$fpl$fpinit)
    x$fpl$fretinf                            0x08013646   Section       10  fretinf.o(x$fpl$fretinf)
    $v0                                      0x08013646   Number         0  fretinf.o(x$fpl$fretinf)
    x$fpl$funder                             0x08013650   Section      316  funder_clz.o(x$fpl$funder)
    $v0                                      0x08013650   Number         0  funder_clz.o(x$fpl$funder)
    x$fpl$ieeestatus                         0x0801378c   Section       32  istatus.o(x$fpl$ieeestatus)
    $v0                                      0x0801378c   Number         0  istatus.o(x$fpl$ieeestatus)
    x$fpl$printf1                            0x080137ac   Section        4  printf1.o(x$fpl$printf1)
    $v0                                      0x080137ac   Number         0  printf1.o(x$fpl$printf1)
    x$fpl$retnan                             0x080137b0   Section      178  retnan.o(x$fpl$retnan)
    $v0                                      0x080137b0   Number         0  retnan.o(x$fpl$retnan)
    x$fpl$trapveneer                         0x08013862   Section      126  trapv.o(x$fpl$trapveneer)
    $v0                                      0x08013862   Number         0  trapv.o(x$fpl$trapveneer)
    .constdata                               0x080138e0   Section       20  usart6.o(.constdata)
    x$fpl$usenofp                            0x080138e0   Section        0  usenofp.o(x$fpl$usenofp)
    .constdata                               0x080138f4   Section       15  calibrate_task.o(.constdata)
    cali_name                                0x080138f4   Data          15  calibrate_task.o(.constdata)
    .constdata                               0x08013904   Section       48  detect_task.o(.constdata)
    .constdata                               0x08013934   Section       24  gimbal_task.o(.constdata)
    Pitch_speed_pid                          0x08013934   Data          12  gimbal_task.o(.constdata)
    Yaw_speed_pid                            0x08013940   Data          12  gimbal_task.o(.constdata)
    .constdata                               0x0801394c   Section       48  ins_task.o(.constdata)
    mpu6500_spi_DMA_txbuf                    0x0801394c   Data          23  ins_task.o(.constdata)
    imuTempPID                               0x08013964   Data          12  ins_task.o(.constdata)
    fliter_num                               0x08013970   Data          12  ins_task.o(.constdata)
    .constdata                               0x0801397c   Section       32  chassis_task.o(.constdata)
    motor_speed_pid                          0x0801397c   Data          12  chassis_task.o(.constdata)
    chassis_yaw_pid                          0x08013988   Data          12  chassis_task.o(.constdata)
    chassis_x_order_filter                   0x08013994   Data           4  chassis_task.o(.constdata)
    chassis_y_order_filter                   0x08013998   Data           4  chassis_task.o(.constdata)
    .constdata                               0x0801399c   Section       96  shoot.o(.constdata)
    Trigger_speed_pid                        0x0801399c   Data          36  shoot.o(.constdata)
    fric_motot_speed_pid                     0x080139c0   Data          24  shoot.o(.constdata)
    fliter_num                               0x080139d8   Data          36  shoot.o(.constdata)
    .constdata                               0x080139fc   Section      770  referee_dispatchtask.o(.constdata)
    .constdata                               0x08013cfe   Section       12  ist8310driver.o(.constdata)
    ist8310_write_reg_data_error             0x08013cfe   Data          12  ist8310driver.o(.constdata)
    .constdata                               0x08013d0a   Section       42  mpu6500driver.o(.constdata)
    write_mpu6500_reg_data_error             0x08013d0a   Data          42  mpu6500driver.o(.constdata)
    .constdata                               0x08013d34   Section       12  ahrs.o(.constdata)
    .constdata                               0x08013d40   Section     2052  arm_common_tables.o(.constdata)
    .constdata                               0x08014544   Section       32  rredf.o(.constdata)
    twooverpi                                0x08014544   Data          32  rredf.o(.constdata)
    .constdata                               0x08014564   Section      148  bigflt0.o(.constdata)
    tenpwrs_x                                0x08014564   Data          60  bigflt0.o(.constdata)
    tenpwrs_i                                0x080145a0   Data          64  bigflt0.o(.constdata)
    locale$$data                             0x08014618   Section       28  lc_numeric_c.o(locale$$data)
    __lcnum_c_name                           0x0801461c   Data           2  lc_numeric_c.o(locale$$data)
    __lcnum_c_start                          0x08014624   Data           0  lc_numeric_c.o(locale$$data)
    __lcnum_c_point                          0x08014630   Data           0  lc_numeric_c.o(locale$$data)
    __lcnum_c_thousands                      0x08014632   Data           0  lc_numeric_c.o(locale$$data)
    __lcnum_c_grouping                       0x08014633   Data           0  lc_numeric_c.o(locale$$data)
    __lcnum_c_end                            0x08014634   Data           0  lc_numeric_c.o(locale$$data)
    .data                                    0x20000000   Section        6  stm32f4xx_it.o(.data)
    this_time_rx_len                         0x20000002   Data           2  stm32f4xx_it.o(.data)
    this_time_rx_len                         0x20000004   Data           2  stm32f4xx_it.o(.data)
    .data                                    0x20000008   Section       20  system_stm32f4xx.o(.data)
    .data                                    0x2000001c   Section        4  basicperipherals.o(.data)
    .data                                    0x20000020   Section        1  motorcan.o(.data)
    i                                        0x20000020   Data           1  motorcan.o(.data)
    .data                                    0x20000024   Section        4  flash.o(.data)
    .data                                    0x20000028   Section        4  delay.o(.data)
    fac_us                                   0x20000028   Data           1  delay.o(.data)
    fac_ms                                   0x2000002a   Data           2  delay.o(.data)
    .data                                    0x2000002c   Section        4  usart.o(.data)
    .data                                    0x20000030   Section       16  stm32f4xx_rcc.o(.data)
    APBAHBPrescTable                         0x20000030   Data          16  stm32f4xx_rcc.o(.data)
    .data                                    0x20000040   Section       24  heap_4.o(.data)
    xStart                                   0x20000040   Data           8  heap_4.o(.data)
    pxEnd                                    0x20000048   Data           4  heap_4.o(.data)
    xFreeBytesRemaining                      0x2000004c   Data           4  heap_4.o(.data)
    xMinimumEverFreeBytesRemaining           0x20000050   Data           4  heap_4.o(.data)
    xBlockAllocatedBit                       0x20000054   Data           4  heap_4.o(.data)
    .data                                    0x20000058   Section       12  port.o(.data)
    uxCriticalNesting                        0x20000058   Data           4  port.o(.data)
    ucMaxSysCallPriority                     0x2000005c   Data           1  port.o(.data)
    ulMaxPRIGROUPValue                       0x20000060   Data           4  port.o(.data)
    .data                                    0x20000064   Section       68  tasks.o(.data)
    pxDelayedTaskList                        0x20000068   Data           4  tasks.o(.data)
    pxOverflowDelayedTaskList                0x2000006c   Data           4  tasks.o(.data)
    uxDeletedTasksWaitingCleanUp             0x20000070   Data           4  tasks.o(.data)
    uxCurrentNumberOfTasks                   0x20000074   Data           4  tasks.o(.data)
    xTickCount                               0x20000078   Data           4  tasks.o(.data)
    uxTopReadyPriority                       0x2000007c   Data           4  tasks.o(.data)
    xSchedulerRunning                        0x20000080   Data           4  tasks.o(.data)
    uxPendedTicks                            0x20000084   Data           4  tasks.o(.data)
    xYieldPending                            0x20000088   Data           4  tasks.o(.data)
    xNumOfOverflows                          0x2000008c   Data           4  tasks.o(.data)
    uxTaskNumber                             0x20000090   Data           4  tasks.o(.data)
    xNextTaskUnblockTime                     0x20000094   Data           4  tasks.o(.data)
    xIdleTaskHandle                          0x20000098   Data           4  tasks.o(.data)
    uxSchedulerSuspended                     0x2000009c   Data           4  tasks.o(.data)
    ulTaskSwitchedInTime                     0x200000a0   Data           4  tasks.o(.data)
    ulTotalRunTime                           0x200000a4   Data           4  tasks.o(.data)
    .data                                    0x200000a8   Section       20  timers.o(.data)
    pxCurrentTimerList                       0x200000a8   Data           4  timers.o(.data)
    pxOverflowTimerList                      0x200000ac   Data           4  timers.o(.data)
    xTimerQueue                              0x200000b0   Data           4  timers.o(.data)
    xTimerTaskHandle                         0x200000b4   Data           4  timers.o(.data)
    xLastTime                                0x200000b8   Data           4  timers.o(.data)
    .data                                    0x200000bc   Section       80  calibrate_task.o(.data)
    calibrate_RC                             0x200000bc   Data           4  calibrate_task.o(.data)
    head_cali                                0x200000c0   Data           8  calibrate_task.o(.data)
    cali_sensor_buf                          0x200000c8   Data          20  calibrate_task.o(.data)
    cali_sensor_size                         0x200000dc   Data           5  calibrate_task.o(.data)
    calibrate_systemTick                     0x200000f8   Data           4  calibrate_task.o(.data)
    i                                        0x200000fc   Data           1  calibrate_task.o(.data)
    i                                        0x200000fd   Data           1  calibrate_task.o(.data)
    rc_cmd_systemTick                        0x20000100   Data           4  calibrate_task.o(.data)
    buzzer_time                              0x20000104   Data           2  calibrate_task.o(.data)
    rc_cmd_time                              0x20000106   Data           2  calibrate_task.o(.data)
    rc_action_falg                           0x20000108   Data           1  calibrate_task.o(.data)
    count_time                               0x2000010a   Data           2  calibrate_task.o(.data)
    .data                                    0x2000010c   Section       10  detect_task.o(.data)
    systemTime                               0x2000010c   Data           4  detect_task.o(.data)
    error_num_display                        0x20000110   Data           1  detect_task.o(.data)
    last_num                                 0x20000111   Data           1  detect_task.o(.data)
    i                                        0x20000112   Data           1  detect_task.o(.data)
    led_flag                                 0x20000113   Data           1  detect_task.o(.data)
    cnt_num                                  0x20000114   Data           1  detect_task.o(.data)
    time                                     0x20000115   Data           1  detect_task.o(.data)
    .data                                    0x20000118   Section       44  gimbal_behaviour.o(.data)
    gimbal_behaviour                         0x20000118   Data           1  gimbal_behaviour.o(.data)
    rc_add_yaw                               0x20000124   Data           4  gimbal_behaviour.o(.data)
    rc_add_pit                               0x20000128   Data           4  gimbal_behaviour.o(.data)
    yaw_channel                              0x2000012c   Data           2  gimbal_behaviour.o(.data)
    pitch_channel                            0x2000012e   Data           2  gimbal_behaviour.o(.data)
    motionless_time                          0x20000130   Data           2  gimbal_behaviour.o(.data)
    init_time                                0x20000132   Data           2  gimbal_behaviour.o(.data)
    init_stop_time                           0x20000134   Data           2  gimbal_behaviour.o(.data)
    no_targe_cnt                             0x20000136   Data           2  gimbal_behaviour.o(.data)
    last_gimbal_behaviour                    0x20000138   Data           1  gimbal_behaviour.o(.data)
    cali_time                                0x2000013a   Data           2  gimbal_behaviour.o(.data)
    last_turn_keyboard                       0x2000013c   Data           2  gimbal_behaviour.o(.data)
    gimbal_turn_flag                         0x2000013e   Data           1  gimbal_behaviour.o(.data)
    gimbal_end_angle                         0x20000140   Data           4  gimbal_behaviour.o(.data)
    .data                                    0x20000144   Section       61  gimbal_task.o(.data)
    last_aim_flag                            0x20000174   Data           1  gimbal_task.o(.data)
    auto_flag                                0x20000175   Data           1  gimbal_task.o(.data)
    bias_angle                               0x20000178   Data           4  gimbal_task.o(.data)
    angle_set                                0x2000017c   Data           4  gimbal_task.o(.data)
    switch_enemy_color                       0x20000180   Data           1  gimbal_task.o(.data)
    .data                                    0x20000184   Section      124  ins_task.o(.data)
    INSTask_Local_Handler                    0x20000184   Data           4  ins_task.o(.data)
    Gyro_Scale_Factor                        0x20000188   Data          36  ins_task.o(.data)
    Accel_Scale_Factor                       0x200001ac   Data          36  ins_task.o(.data)
    Mag_Scale_Factor                         0x200001d0   Data          36  ins_task.o(.data)
    first_temperate                          0x200001f4   Data           1  ins_task.o(.data)
    updata_count                             0x200001f5   Data           1  ins_task.o(.data)
    start_gyro_cali_time                     0x200001f6   Data           2  ins_task.o(.data)
    temp_constant_time                       0x200001f8   Data           1  ins_task.o(.data)
    xHigherPriorityTaskWoken                 0x200001fc   Data           4  ins_task.o(.data)
    .data                                    0x20000200   Section       25  start_task.o(.data)
    Start_Task_Handle                        0x20000200   Data           4  start_task.o(.data)
    INSTask_Handler                          0x20000208   Data           4  start_task.o(.data)
    DetectTask_Handler                       0x2000020c   Data           4  start_task.o(.data)
    CalibrateTask_Handler                    0x20000210   Data           4  start_task.o(.data)
    .data                                    0x2000021a   Section       13  auto_attacktask.o(.data)
    i                                        0x20000226   Data           1  auto_attacktask.o(.data)
    .data                                    0x20000228   Section       16  chassis_behaviour.o(.data)
    chassis_behaviour_mode                   0x20000228   Data           1  chassis_behaviour.o(.data)
    swing_flag                               0x20000229   Data           1  chassis_behaviour.o(.data)
    swing_time                               0x2000022c   Data           4  chassis_behaviour.o(.data)
    swing_angle                              0x20000230   Data           4  chassis_behaviour.o(.data)
    max_angle                                0x20000234   Data           4  chassis_behaviour.o(.data)
    .data                                    0x20000238   Section       33  shoot.o(.data)
    shoot_rc                                 0x20000238   Data           4  shoot.o(.data)
    fric_pwm1                                0x20000250   Data           2  shoot.o(.data)
    fric_pwm2                                0x20000252   Data           2  shoot.o(.data)
    last_s                                   0x20000254   Data           1  shoot.o(.data)
    bullet_empty                             0x20000255   Data           1  shoot.o(.data)
    add_bullet_num                           0x20000256   Data           1  shoot.o(.data)
    add_bullet_flag                          0x20000257   Data           1  shoot.o(.data)
    only_one_cnt                             0x20000258   Data           1  shoot.o(.data)
    .data                                    0x2000025c   Section       14  referee_dispatchtask.o(.data)
    .data                                    0x2000026a   Section        1  mpu6500driver.o(.data)
    motion_time                              0x2000026a   Data           1  mpu6500driver.o(.data)
    .data                                    0x2000026c   Section       16  ahrs.o(.data)
    local_hight                              0x2000026c   Data           4  ahrs.o(.data)
    latitude                                 0x20000270   Data           4  ahrs.o(.data)
    local_gravity                            0x20000274   Data           4  ahrs.o(.data)
    carrier_gravity                          0x20000278   Data           4  ahrs.o(.data)
    .bss                                     0x2000027c   Section       94  remotdbus.o(.bss)
    .bss                                     0x200002da   Section      110  motorcan.o(.bss)
    motor_yaw                                0x200002da   Data          10  motorcan.o(.bss)
    motor_pit                                0x200002e4   Data          10  motorcan.o(.bss)
    motor_trigger                            0x200002ee   Data          30  motorcan.o(.bss)
    motor_chassis                            0x2000030c   Data          40  motorcan.o(.bss)
    motor_fric                               0x20000334   Data          20  motorcan.o(.bss)
    .bss                                     0x20000348   Section     9932  usart6.o(.bss)
    .bss                                     0x20002a14   Section    76800  heap_4.o(.bss)
    ucHeap                                   0x20002a14   Data       76800  heap_4.o(.bss)
    .bss                                     0x20015614   Section       64  queue.o(.bss)
    .bss                                     0x20015654   Section      700  tasks.o(.bss)
    pxReadyTasksLists                        0x20015654   Data         600  tasks.o(.bss)
    xDelayedTaskList1                        0x200158ac   Data          20  tasks.o(.bss)
    xDelayedTaskList2                        0x200158c0   Data          20  tasks.o(.bss)
    xPendingReadyList                        0x200158d4   Data          20  tasks.o(.bss)
    xTasksWaitingTermination                 0x200158e8   Data          20  tasks.o(.bss)
    xSuspendedTaskList                       0x200158fc   Data          20  tasks.o(.bss)
    .bss                                     0x20015910   Section       40  timers.o(.bss)
    xActiveTimerList1                        0x20015910   Data          20  timers.o(.bss)
    xActiveTimerList2                        0x20015924   Data          20  timers.o(.bss)
    .bss                                     0x20015938   Section      157  calibrate_task.o(.bss)
    gimbal_cali                              0x20015938   Data          20  calibrate_task.o(.bss)
    gyro_cali                                0x2001594c   Data          24  calibrate_task.o(.bss)
    accel_cali                               0x20015964   Data          24  calibrate_task.o(.bss)
    mag_cali                                 0x2001597c   Data          24  calibrate_task.o(.bss)
    cali_sensor                              0x20015994   Data          65  calibrate_task.o(.bss)
    .bss                                     0x200159d5   Section      324  detect_task.o(.bss)
    .bss                                     0x20015b1c   Section      496  gimbal_task.o(.bss)
    .bss                                     0x20015d0c   Section      292  ins_task.o(.bss)
    mpu6500_spi_rxbuf                        0x20015d0c   Data          23  ins_task.o(.bss)
    mpu6500_real_data                        0x20015d24   Data          32  ins_task.o(.bss)
    gyro_cali_offset                         0x20015d44   Data          12  ins_task.o(.bss)
    Gyro_Offset                              0x20015d50   Data          12  ins_task.o(.bss)
    Accel_Offset                             0x20015d5c   Data          12  ins_task.o(.bss)
    ist8310_real_data                        0x20015d68   Data          16  ins_task.o(.bss)
    Mag_Offset                               0x20015d78   Data          12  ins_task.o(.bss)
    INS_gyro                                 0x20015d84   Data          12  ins_task.o(.bss)
    INS_accel                                0x20015d90   Data          12  ins_task.o(.bss)
    INS_mag                                  0x20015d9c   Data          12  ins_task.o(.bss)
    INS_Angle                                0x20015da8   Data          12  ins_task.o(.bss)
    INS_quat                                 0x20015db4   Data          16  ins_task.o(.bss)
    imuTempPid                               0x20015dc4   Data          72  ins_task.o(.bss)
    accel_fliter_1                           0x20015e0c   Data          12  ins_task.o(.bss)
    accel_fliter_2                           0x20015e18   Data          12  ins_task.o(.bss)
    accel_fliter_3                           0x20015e24   Data          12  ins_task.o(.bss)
    .bss                                     0x20015e30   Section      220  auto_attacktask.o(.bss)
    .bss                                     0x20015f0c   Section      560  chassis_task.o(.bss)
    chassis_move                             0x20015f0c   Data         560  chassis_task.o(.bss)
    .bss                                     0x2001613c   Section      908  shoot.o(.bss)
    shoot_CAN_Set_Current                    0x20016498   Data          10  shoot.o(.bss)
    speed_fliter_1                           0x200164a4   Data          12  shoot.o(.bss)
    speed_fliter_2                           0x200164b0   Data          12  shoot.o(.bss)
    speed_fliter_3                           0x200164bc   Data          12  shoot.o(.bss)
    .bss                                     0x200164c8   Section      164  referee_dispatchtask.o(.bss)
    data                                     0x20016550   Data          28  referee_dispatchtask.o(.bss)
    .bss                                     0x2001656c   Section       96  libspace.o(.bss)
    HEAP                                     0x200165d0   Section      512  startup_stm32f427_437xx.o(HEAP)
    Heap_Mem                                 0x200165d0   Data         512  startup_stm32f427_437xx.o(HEAP)
    STACK                                    0x200167d0   Section     1024  startup_stm32f427_437xx.o(STACK)
    Stack_Mem                                0x200167d0   Data        1024  startup_stm32f427_437xx.o(STACK)
    __initial_sp                             0x20016bd0   Data           0  startup_stm32f427_437xx.o(STACK)

    Global Symbols

    Symbol Name                              Value     Ov Type        Size  Object(Section)

    BuildAttributes$$THM_ISAv4$E$P$D$K$B$S$7EM$VFPi3$EXTD16$VFPS$VFMA$PE$A:L22UL41UL21$X:L11$S22US41US21$IEEE1$IW$USESV6$~STKCKD$USESV7$~SHL$OTIME$ROPI$IEEEX$EBA8$UX$STANDARDLIB$REQ8$PRES8$EABIv2 0x00000000   Number         0  anon$$obj.o ABSOLUTE
    __ARM_use_no_argv                        0x00000000   Number         0  main.o ABSOLUTE
    __ARM_exceptions_init                     - Undefined Weak Reference
    __alloca_initialize                       - Undefined Weak Reference
    __arm_preinit_                            - Undefined Weak Reference
    __cpp_initialize__aeabi_                  - Undefined Weak Reference
    __cxa_finalize                            - Undefined Weak Reference
    __sigvec_lookup                           - Undefined Weak Reference
    __user_heap_extent                        - Undefined Weak Reference
    _atexit_init                              - Undefined Weak Reference
    _call_atexit_fns                          - Undefined Weak Reference
    _clock_init                               - Undefined Weak Reference
    _fp_trap_big                              - Undefined Weak Reference
    _fp_trap_init                             - Undefined Weak Reference
    _fp_trap_shutdown                         - Undefined Weak Reference
    _get_lc_collate                           - Undefined Weak Reference
    _get_lc_ctype                             - Undefined Weak Reference
    _get_lc_monetary                          - Undefined Weak Reference
    _get_lc_time                              - Undefined Weak Reference
    _getenv_init                              - Undefined Weak Reference
    _handle_redirection                       - Undefined Weak Reference
    _initio                                   - Undefined Weak Reference
    _mutex_acquire                            - Undefined Weak Reference
    _mutex_free                               - Undefined Weak Reference
    _mutex_release                            - Undefined Weak Reference
    _printf_mbtowc                            - Undefined Weak Reference
    _printf_post_padding                      - Undefined Weak Reference
    _printf_pre_padding                       - Undefined Weak Reference
    _printf_truncate_signed                   - Undefined Weak Reference
    _printf_truncate_unsigned                 - Undefined Weak Reference
    _rand_init                                - Undefined Weak Reference
    _signal_finish                            - Undefined Weak Reference
    _signal_init                              - Undefined Weak Reference
    _terminateio                              - Undefined Weak Reference
    __Vectors_Size                           0x000001ac   Number         0  startup_stm32f427_437xx.o ABSOLUTE
    __Vectors                                0x08000000   Data           4  startup_stm32f427_437xx.o(RESET)
    __Vectors_End                            0x080001ac   Data           0  startup_stm32f427_437xx.o(RESET)
    __main                                   0x080001ad   Thumb Code     8  __main.o(!!!main)
    __scatterload                            0x080001b5   Thumb Code     0  __scatter.o(!!!scatter)
    __scatterload_rt2                        0x080001b5   Thumb Code    44  __scatter.o(!!!scatter)
    __scatterload_rt2_thumb_only             0x080001b5   Thumb Code     0  __scatter.o(!!!scatter)
    __scatterload_null                       0x080001c3   Thumb Code     0  __scatter.o(!!!scatter)
    __decompress                             0x080001e9   Thumb Code    90  __dczerorl2.o(!!dczerorl2)
    __decompress1                            0x080001e9   Thumb Code     0  __dczerorl2.o(!!dczerorl2)
    __scatterload_zeroinit                   0x08000245   Thumb Code    28  __scatter_zi.o(!!handler_zi)
    _printf_f                                0x08000261   Thumb Code     0  _printf_f.o(.ARM.Collect$$_printf_percent$$00000003)
    _printf_percent                          0x08000261   Thumb Code     0  _printf_percent.o(.ARM.Collect$$_printf_percent$$00000000)
    _printf_d                                0x08000267   Thumb Code     0  _printf_d.o(.ARM.Collect$$_printf_percent$$00000009)
    _printf_u                                0x0800026d   Thumb Code     0  _printf_u.o(.ARM.Collect$$_printf_percent$$0000000A)
    _printf_c                                0x08000273   Thumb Code     0  _printf_c.o(.ARM.Collect$$_printf_percent$$00000013)
    _printf_percent_end                      0x08000279   Thumb Code     0  _printf_percent_end.o(.ARM.Collect$$_printf_percent$$00000017)
    __rt_lib_init                            0x0800027d   Thumb Code     0  libinit.o(.ARM.Collect$$libinit$$00000000)
    __rt_lib_init_fp_1                       0x0800027f   Thumb Code     0  libinit2.o(.ARM.Collect$$libinit$$00000001)
    __rt_lib_init_heap_2                     0x08000283   Thumb Code     0  libinit2.o(.ARM.Collect$$libinit$$00000005)
    __rt_lib_init_preinit_1                  0x08000283   Thumb Code     0  libinit2.o(.ARM.Collect$$libinit$$00000004)
    __rt_lib_init_heap_1                     0x0800028b   Thumb Code     0  libinit2.o(.ARM.Collect$$libinit$$0000000A)
    __rt_lib_init_lc_common                  0x0800028b   Thumb Code     0  libinit2.o(.ARM.Collect$$libinit$$0000000F)
    __rt_lib_init_rand_1                     0x0800028b   Thumb Code     0  libinit2.o(.ARM.Collect$$libinit$$0000000E)
    __rt_lib_init_user_alloc_1               0x0800028b   Thumb Code     0  libinit2.o(.ARM.Collect$$libinit$$0000000C)
    __rt_lib_init_lc_collate_1               0x08000291   Thumb Code     0  libinit2.o(.ARM.Collect$$libinit$$00000011)
    __rt_lib_init_lc_ctype_1                 0x08000291   Thumb Code     0  libinit2.o(.ARM.Collect$$libinit$$00000013)
    __rt_lib_init_lc_monetary_1              0x08000291   Thumb Code     0  libinit2.o(.ARM.Collect$$libinit$$00000015)
    __rt_lib_init_lc_numeric_2               0x08000291   Thumb Code     0  libinit2.o(.ARM.Collect$$libinit$$00000016)
    __rt_lib_init_alloca_1                   0x0800029b   Thumb Code     0  libinit2.o(.ARM.Collect$$libinit$$0000002E)
    __rt_lib_init_argv_1                     0x0800029b   Thumb Code     0  libinit2.o(.ARM.Collect$$libinit$$0000002C)
    __rt_lib_init_atexit_1                   0x0800029b   Thumb Code     0  libinit2.o(.ARM.Collect$$libinit$$0000001B)
    __rt_lib_init_clock_1                    0x0800029b   Thumb Code     0  libinit2.o(.ARM.Collect$$libinit$$00000021)
    __rt_lib_init_cpp_1                      0x0800029b   Thumb Code     0  libinit2.o(.ARM.Collect$$libinit$$00000032)
    __rt_lib_init_exceptions_1               0x0800029b   Thumb Code     0  libinit2.o(.ARM.Collect$$libinit$$00000030)
    __rt_lib_init_fp_trap_1                  0x0800029b   Thumb Code     0  libinit2.o(.ARM.Collect$$libinit$$0000001F)
    __rt_lib_init_getenv_1                   0x0800029b   Thumb Code     0  libinit2.o(.ARM.Collect$$libinit$$00000023)
    __rt_lib_init_lc_numeric_1               0x0800029b   Thumb Code     0  libinit2.o(.ARM.Collect$$libinit$$00000017)
    __rt_lib_init_lc_time_1                  0x0800029b   Thumb Code     0  libinit2.o(.ARM.Collect$$libinit$$00000019)
    __rt_lib_init_return                     0x0800029b   Thumb Code     0  libinit2.o(.ARM.Collect$$libinit$$00000033)
    __rt_lib_init_signal_1                   0x0800029b   Thumb Code     0  libinit2.o(.ARM.Collect$$libinit$$0000001D)
    __rt_lib_init_stdio_1                    0x0800029b   Thumb Code     0  libinit2.o(.ARM.Collect$$libinit$$00000025)
    __rt_lib_shutdown                        0x0800029d   Thumb Code     0  libshutdown.o(.ARM.Collect$$libshutdown$$00000000)
    __rt_lib_shutdown_fp_trap_1              0x0800029f   Thumb Code     0  libshutdown2.o(.ARM.Collect$$libshutdown$$00000006)
    __rt_lib_shutdown_heap_1                 0x0800029f   Thumb Code     0  libshutdown2.o(.ARM.Collect$$libshutdown$$0000000E)
    __rt_lib_shutdown_return                 0x0800029f   Thumb Code     0  libshutdown2.o(.ARM.Collect$$libshutdown$$0000000F)
    __rt_lib_shutdown_signal_1               0x0800029f   Thumb Code     0  libshutdown2.o(.ARM.Collect$$libshutdown$$00000009)
    __rt_lib_shutdown_stdio_1                0x0800029f   Thumb Code     0  libshutdown2.o(.ARM.Collect$$libshutdown$$00000003)
    __rt_lib_shutdown_user_alloc_1           0x0800029f   Thumb Code     0  libshutdown2.o(.ARM.Collect$$libshutdown$$0000000B)
    __rt_entry                               0x080002a1   Thumb Code     0  __rtentry.o(.ARM.Collect$$rtentry$$00000000)
    __rt_entry_presh_1                       0x080002a1   Thumb Code     0  __rtentry2.o(.ARM.Collect$$rtentry$$00000002)
    __rt_entry_sh                            0x080002a1   Thumb Code     0  __rtentry4.o(.ARM.Collect$$rtentry$$00000004)
    __rt_entry_li                            0x080002a7   Thumb Code     0  __rtentry2.o(.ARM.Collect$$rtentry$$0000000A)
    __rt_entry_postsh_1                      0x080002a7   Thumb Code     0  __rtentry2.o(.ARM.Collect$$rtentry$$00000009)
    __rt_entry_main                          0x080002ab   Thumb Code     0  __rtentry2.o(.ARM.Collect$$rtentry$$0000000D)
    __rt_entry_postli_1                      0x080002ab   Thumb Code     0  __rtentry2.o(.ARM.Collect$$rtentry$$0000000C)
    __rt_exit                                0x080002b3   Thumb Code     0  rtexit.o(.ARM.Collect$$rtexit$$00000000)
    __rt_exit_ls                             0x080002b5   Thumb Code     0  rtexit2.o(.ARM.Collect$$rtexit$$00000003)
    __rt_exit_prels_1                        0x080002b5   Thumb Code     0  rtexit2.o(.ARM.Collect$$rtexit$$00000002)
    __rt_exit_exit                           0x080002b9   Thumb Code     0  rtexit2.o(.ARM.Collect$$rtexit$$00000004)
    SVC_Handler                              0x080002c1   Thumb Code    28  port.o(.emb_text)
    __asm___6_port_c_39a90d8d__prvStartFirstTask 0x080002e1   Thumb Code    36  port.o(.emb_text)
    __asm___6_port_c_39a90d8d__prvEnableVFP  0x08000309   Thumb Code    16  port.o(.emb_text)
    PendSV_Handler                           0x0800031d   Thumb Code    88  port.o(.emb_text)
    vPortGetIPSR                             0x08000379   Thumb Code     6  port.o(.emb_text)
    BSP_Init                                 0x08000381   Thumb Code   110  main.o(.text)
    _maybe_terminate_alloc                   0x08000381   Thumb Code     0  maybetermalloc1.o(.emb_text)
    main                                     0x080003ef   Thumb Code    16  main.o(.text)
    NMI_Handler                              0x08000401   Thumb Code     2  stm32f4xx_it.o(.text)
    HardFault_Handler                        0x08000403   Thumb Code     4  stm32f4xx_it.o(.text)
    MemManage_Handler                        0x08000407   Thumb Code     4  stm32f4xx_it.o(.text)
    BusFault_Handler                         0x0800040b   Thumb Code     4  stm32f4xx_it.o(.text)
    UsageFault_Handler                       0x0800040f   Thumb Code     4  stm32f4xx_it.o(.text)
    DebugMon_Handler                         0x08000413   Thumb Code     2  stm32f4xx_it.o(.text)
    EXTI2_IRQHandler                         0x08000415   Thumb Code    16  stm32f4xx_it.o(.text)
    USART1_IRQHandler                        0x08000425   Thumb Code   216  stm32f4xx_it.o(.text)
    CAN1_RX0_IRQHandler                      0x080004fd   Thumb Code    52  stm32f4xx_it.o(.text)
    CAN2_RX0_IRQHandler                      0x08000531   Thumb Code    52  stm32f4xx_it.o(.text)
    CAN2_TX_IRQHandler                       0x08000565   Thumb Code    22  stm32f4xx_it.o(.text)
    CAN1_TX_IRQHandler                       0x0800057b   Thumb Code    22  stm32f4xx_it.o(.text)
    TIM2_IRQHandler                          0x08000591   Thumb Code    30  stm32f4xx_it.o(.text)
    USART3_IRQHandler                        0x080005af   Thumb Code   234  stm32f4xx_it.o(.text)
    SystemInit                               0x080007e5   Thumb Code    88  system_stm32f4xx.o(.text)
    SystemCoreClockUpdate                    0x0800083d   Thumb Code   174  system_stm32f4xx.o(.text)
    InitOLED_MASTER_SH1106G                  0x08000a6d   Thumb Code     2  basicperipherals.o(.text)
    BasicPreiph_Init                         0x08000a6f   Thumb Code    20  basicperipherals.o(.text)
    StrartingMusic                           0x08000a83   Thumb Code    66  basicperipherals.o(.text)
    FrictionCaliTriggerMusic                 0x08000ac5   Thumb Code    66  basicperipherals.o(.text)
    FrictionCaliMusic                        0x08000b07   Thumb Code    66  basicperipherals.o(.text)
    ImuCaliMusic                             0x08000b49   Thumb Code    66  basicperipherals.o(.text)
    TIM4_Config                              0x08000b8b   Thumb Code    96  basicperipherals.o(.text)
    TIM4_IRQHandler                          0x08000beb   Thumb Code    34  basicperipherals.o(.text)
    ConfigureTimeForTimeStats                0x08000c0d   Thumb Code    14  basicperipherals.o(.text)
    led_green_off                            0x08000c1b   Thumb Code    14  basicperipherals.o(.text)
    led_green_on                             0x08000c29   Thumb Code    14  basicperipherals.o(.text)
    led_green_toggle                         0x08000c37   Thumb Code    14  basicperipherals.o(.text)
    led_red_off                              0x08000c45   Thumb Code    14  basicperipherals.o(.text)
    led_red_on                               0x08000c53   Thumb Code    14  basicperipherals.o(.text)
    led_red_toggle                           0x08000c61   Thumb Code    14  basicperipherals.o(.text)
    flow_led_on                              0x08000c6f   Thumb Code    20  basicperipherals.o(.text)
    flow_led_off                             0x08000c83   Thumb Code    20  basicperipherals.o(.text)
    flow_led_toggle                          0x08000c97   Thumb Code    20  basicperipherals.o(.text)
    laser_on                                 0x08000cab   Thumb Code    14  basicperipherals.o(.text)
    laser_off                                0x08000cb9   Thumb Code    14  basicperipherals.o(.text)
    RemotDbus_Init                           0x08000ce9   Thumb Code   344  remotdbus.o(.text)
    RC_unable                                0x08000e41   Thumb Code    12  remotdbus.o(.text)
    RC_restart                               0x08000e4d   Thumb Code    72  remotdbus.o(.text)
    SBUS_TO_RC                               0x08000ea5   Thumb Code   218  remotdbus.o(.text)
    get_remote_control_point                 0x08000f7f   Thumb Code     4  remotdbus.o(.text)
    RC_data_is_error                         0x08000f83   Thumb Code   146  remotdbus.o(.text)
    slove_RC_lost                            0x08001015   Thumb Code    10  remotdbus.o(.text)
    slove_data_error                         0x0800101f   Thumb Code    10  remotdbus.o(.text)
    FrictionMoterPWM_Init                    0x08001045   Thumb Code   244  frictionmoterpwm.o(.text)
    fric_off                                 0x08001139   Thumb Code    24  frictionmoterpwm.o(.text)
    fric1_on                                 0x08001151   Thumb Code    16  frictionmoterpwm.o(.text)
    fric2_on                                 0x08001161   Thumb Code    16  frictionmoterpwm.o(.text)
    MoterCanInit                             0x08001399   Thumb Code    12  motorcan.o(.text)
    CanSendMess                              0x080013a5   Thumb Code   132  motorcan.o(.text)
    get_Yaw_Gimbal_Motor_Measure_Point       0x08001429   Thumb Code     4  motorcan.o(.text)
    get_Pitch_Gimbal_Motor_Measure_Point     0x0800142d   Thumb Code     4  motorcan.o(.text)
    get_Chassis_Motor_Measure_Point          0x08001431   Thumb Code    18  motorcan.o(.text)
    get_Fric_Motor_Measure_Point             0x08001443   Thumb Code    18  motorcan.o(.text)
    get_shoot_Motor_Measure_Point            0x08001455   Thumb Code    18  motorcan.o(.text)
    CAN_hook                                 0x08001467   Thumb Code   704  motorcan.o(.text)
    MainFocusConfig                          0x08001735   Thumb Code   374  mainfocus_usart.o(.text)
    Send_MessToMainFocus                     0x080018ab   Thumb Code    62  mainfocus_usart.o(.text)
    temperature_ADC_init                     0x0800191f   Thumb Code    80  adc.o(.text)
    get_temprate                             0x080019a3   Thumb Code    80  adc.o(.text)
    buzzer_off                               0x08001a05   Thumb Code    12  buzzer.o(.text)
    buzzer_init                              0x08001a11   Thumb Code   174  buzzer.o(.text)
    buzzer_on                                0x08001abf   Thumb Code    22  buzzer.o(.text)
    GPIOB_Exti8_GPIO_Init                    0x08001add   Thumb Code   130  exit_init.o(.text)
    flash_write_single_address               0x08001e57   Thumb Code   184  flash.o(.text)
    flash_write_muli_address                 0x08001fb5   Thumb Code   152  flash.o(.text)
    flash_read                               0x0800204d   Thumb Code    32  flash.o(.text)
    write_protect                            0x0800206d   Thumb Code    56  flash.o(.text)
    write_relieve_protect                    0x080020a5   Thumb Code    54  flash.o(.text)
    SPI5Init                                 0x080020e1   Thumb Code   182  spi.o(.text)
    SPI5SetSpeedAndDataSize                  0x08002197   Thumb Code    42  spi.o(.text)
    SPI5_DMA_Init                            0x080021c1   Thumb Code   244  spi.o(.text)
    SPI5_DMA_Enable                          0x080022b5   Thumb Code   104  spi.o(.text)
    TIM1_Init                                0x08002331   Thumb Code   286  timer.o(.text)
    TIM3_Init                                0x0800244f   Thumb Code   210  timer.o(.text)
    TIM6_Init                                0x08002521   Thumb Code   116  timer.o(.text)
    TIM12_Init                               0x08002595   Thumb Code    70  timer.o(.text)
    TIM3_IRQHandler                          0x080025db   Thumb Code    22  timer.o(.text)
    power_ctrl_off                           0x0800260d   Thumb Code    26  power_ctrl.o(.text)
    power_ctrl_configuration                 0x08002627   Thumb Code    66  power_ctrl.o(.text)
    power_ctrl_on                            0x08002669   Thumb Code    26  power_ctrl.o(.text)
    power_ctrl_toggle                        0x08002683   Thumb Code    26  power_ctrl.o(.text)
    USART6_Init                              0x080026a1   Thumb Code   182  usart6.o(.text)
    USART6_DMA_Tx_Init                       0x08002757   Thumb Code   130  usart6.o(.text)
    USART6_DMA_Rx_Init                       0x080027d9   Thumb Code   162  usart6.o(.text)
    USART6_Tx_IRQ_Callback                   0x0800287b   Thumb Code    28  usart6.o(.text)
    USART6_Rx_IRQ_Callback                   0x08002897   Thumb Code   126  usart6.o(.text)
    USART6_IRQHandler                        0x08002915   Thumb Code    12  usart6.o(.text)
    DMA2_Stream1_IRQHandler                  0x08002921   Thumb Code    82  usart6.o(.text)
    DMA2_Stream6_IRQHandler                  0x08002973   Thumb Code    82  usart6.o(.text)
    USART6_Send_                             0x080029c5   Thumb Code    34  usart6.o(.text)
    USART6_Send                              0x080029e7   Thumb Code    68  usart6.o(.text)
    USART6_Recv                              0x08002a2b   Thumb Code    26  usart6.o(.text)
    USART6_At                                0x08002a45   Thumb Code    14  usart6.o(.text)
    USART6_Drop                              0x08002a53   Thumb Code    14  usart6.o(.text)
    USART6_GetDataCount                      0x08002a61   Thumb Code    10  usart6.o(.text)
    USART6_Free                              0x08002a6b   Thumb Code    10  usart6.o(.text)
    SysTick_Handler                          0x08002aad   Thumb Code    16  delay.o(.text)
    delay_init                               0x08002abd   Thumb Code    58  delay.o(.text)
    delay_us                                 0x08002af7   Thumb Code    68  delay.o(.text)
    delay_ms                                 0x08002b3b   Thumb Code    62  delay.o(.text)
    delay_xms                                0x08002b79   Thumb Code    24  delay.o(.text)
    _sys_exit                                0x08002b99   Thumb Code     8  usart.o(.text)
    _ttywrch                                 0x08002ba1   Thumb Code     8  usart.o(.text)
    fputc                                    0x08002ba9   Thumb Code    24  usart.o(.text)
    uart_init                                0x08002bc1   Thumb Code   126  usart.o(.text)
    Reset_Handler                            0x08002c49   Thumb Code     8  startup_stm32f427_437xx.o(.text)
    ADC_IRQHandler                           0x08002c63   Thumb Code     0  startup_stm32f427_437xx.o(.text)
    CAN1_RX1_IRQHandler                      0x08002c63   Thumb Code     0  startup_stm32f427_437xx.o(.text)
    CAN1_SCE_IRQHandler                      0x08002c63   Thumb Code     0  startup_stm32f427_437xx.o(.text)
    CAN2_RX1_IRQHandler                      0x08002c63   Thumb Code     0  startup_stm32f427_437xx.o(.text)
    CAN2_SCE_IRQHandler                      0x08002c63   Thumb Code     0  startup_stm32f427_437xx.o(.text)
    CRYP_IRQHandler                          0x08002c63   Thumb Code     0  startup_stm32f427_437xx.o(.text)
    DCMI_IRQHandler                          0x08002c63   Thumb Code     0  startup_stm32f427_437xx.o(.text)
    DMA1_Stream0_IRQHandler                  0x08002c63   Thumb Code     0  startup_stm32f427_437xx.o(.text)
    DMA1_Stream1_IRQHandler                  0x08002c63   Thumb Code     0  startup_stm32f427_437xx.o(.text)
    DMA1_Stream2_IRQHandler                  0x08002c63   Thumb Code     0  startup_stm32f427_437xx.o(.text)
    DMA1_Stream3_IRQHandler                  0x08002c63   Thumb Code     0  startup_stm32f427_437xx.o(.text)
    DMA1_Stream4_IRQHandler                  0x08002c63   Thumb Code     0  startup_stm32f427_437xx.o(.text)
    DMA1_Stream5_IRQHandler                  0x08002c63   Thumb Code     0  startup_stm32f427_437xx.o(.text)
    DMA1_Stream6_IRQHandler                  0x08002c63   Thumb Code     0  startup_stm32f427_437xx.o(.text)
    DMA1_Stream7_IRQHandler                  0x08002c63   Thumb Code     0  startup_stm32f427_437xx.o(.text)
    DMA2D_IRQHandler                         0x08002c63   Thumb Code     0  startup_stm32f427_437xx.o(.text)
    DMA2_Stream0_IRQHandler                  0x08002c63   Thumb Code     0  startup_stm32f427_437xx.o(.text)
    DMA2_Stream2_IRQHandler                  0x08002c63   Thumb Code     0  startup_stm32f427_437xx.o(.text)
    DMA2_Stream3_IRQHandler                  0x08002c63   Thumb Code     0  startup_stm32f427_437xx.o(.text)
    DMA2_Stream4_IRQHandler                  0x08002c63   Thumb Code     0  startup_stm32f427_437xx.o(.text)
    DMA2_Stream7_IRQHandler                  0x08002c63   Thumb Code     0  startup_stm32f427_437xx.o(.text)
    ETH_IRQHandler                           0x08002c63   Thumb Code     0  startup_stm32f427_437xx.o(.text)
    ETH_WKUP_IRQHandler                      0x08002c63   Thumb Code     0  startup_stm32f427_437xx.o(.text)
    EXTI0_IRQHandler                         0x08002c63   Thumb Code     0  startup_stm32f427_437xx.o(.text)
    EXTI15_10_IRQHandler                     0x08002c63   Thumb Code     0  startup_stm32f427_437xx.o(.text)
    EXTI1_IRQHandler                         0x08002c63   Thumb Code     0  startup_stm32f427_437xx.o(.text)
    EXTI3_IRQHandler                         0x08002c63   Thumb Code     0  startup_stm32f427_437xx.o(.text)
    EXTI4_IRQHandler                         0x08002c63   Thumb Code     0  startup_stm32f427_437xx.o(.text)
    FLASH_IRQHandler                         0x08002c63   Thumb Code     0  startup_stm32f427_437xx.o(.text)
    FMC_IRQHandler                           0x08002c63   Thumb Code     0  startup_stm32f427_437xx.o(.text)
    FPU_IRQHandler                           0x08002c63   Thumb Code     0  startup_stm32f427_437xx.o(.text)
    HASH_RNG_IRQHandler                      0x08002c63   Thumb Code     0  startup_stm32f427_437xx.o(.text)
    I2C1_ER_IRQHandler                       0x08002c63   Thumb Code     0  startup_stm32f427_437xx.o(.text)
    I2C1_EV_IRQHandler                       0x08002c63   Thumb Code     0  startup_stm32f427_437xx.o(.text)
    I2C2_ER_IRQHandler                       0x08002c63   Thumb Code     0  startup_stm32f427_437xx.o(.text)
    I2C2_EV_IRQHandler                       0x08002c63   Thumb Code     0  startup_stm32f427_437xx.o(.text)
    I2C3_ER_IRQHandler                       0x08002c63   Thumb Code     0  startup_stm32f427_437xx.o(.text)
    I2C3_EV_IRQHandler                       0x08002c63   Thumb Code     0  startup_stm32f427_437xx.o(.text)
    OTG_FS_IRQHandler                        0x08002c63   Thumb Code     0  startup_stm32f427_437xx.o(.text)
    OTG_FS_WKUP_IRQHandler                   0x08002c63   Thumb Code     0  startup_stm32f427_437xx.o(.text)
    OTG_HS_EP1_IN_IRQHandler                 0x08002c63   Thumb Code     0  startup_stm32f427_437xx.o(.text)
    OTG_HS_EP1_OUT_IRQHandler                0x08002c63   Thumb Code     0  startup_stm32f427_437xx.o(.text)
    OTG_HS_IRQHandler                        0x08002c63   Thumb Code     0  startup_stm32f427_437xx.o(.text)
    OTG_HS_WKUP_IRQHandler                   0x08002c63   Thumb Code     0  startup_stm32f427_437xx.o(.text)
    PVD_IRQHandler                           0x08002c63   Thumb Code     0  startup_stm32f427_437xx.o(.text)
    RCC_IRQHandler                           0x08002c63   Thumb Code     0  startup_stm32f427_437xx.o(.text)
    RTC_Alarm_IRQHandler                     0x08002c63   Thumb Code     0  startup_stm32f427_437xx.o(.text)
    RTC_WKUP_IRQHandler                      0x08002c63   Thumb Code     0  startup_stm32f427_437xx.o(.text)
    SAI1_IRQHandler                          0x08002c63   Thumb Code     0  startup_stm32f427_437xx.o(.text)
    SDIO_IRQHandler                          0x08002c63   Thumb Code     0  startup_stm32f427_437xx.o(.text)
    SPI1_IRQHandler                          0x08002c63   Thumb Code     0  startup_stm32f427_437xx.o(.text)
    SPI2_IRQHandler                          0x08002c63   Thumb Code     0  startup_stm32f427_437xx.o(.text)
    SPI3_IRQHandler                          0x08002c63   Thumb Code     0  startup_stm32f427_437xx.o(.text)
    SPI4_IRQHandler                          0x08002c63   Thumb Code     0  startup_stm32f427_437xx.o(.text)
    SPI5_IRQHandler                          0x08002c63   Thumb Code     0  startup_stm32f427_437xx.o(.text)
    SPI6_IRQHandler                          0x08002c63   Thumb Code     0  startup_stm32f427_437xx.o(.text)
    TAMP_STAMP_IRQHandler                    0x08002c63   Thumb Code     0  startup_stm32f427_437xx.o(.text)
    TIM1_BRK_TIM9_IRQHandler                 0x08002c63   Thumb Code     0  startup_stm32f427_437xx.o(.text)
    TIM1_CC_IRQHandler                       0x08002c63   Thumb Code     0  startup_stm32f427_437xx.o(.text)
    TIM1_TRG_COM_TIM11_IRQHandler            0x08002c63   Thumb Code     0  startup_stm32f427_437xx.o(.text)
    TIM1_UP_TIM10_IRQHandler                 0x08002c63   Thumb Code     0  startup_stm32f427_437xx.o(.text)
    TIM5_IRQHandler                          0x08002c63   Thumb Code     0  startup_stm32f427_437xx.o(.text)
    TIM6_DAC_IRQHandler                      0x08002c63   Thumb Code     0  startup_stm32f427_437xx.o(.text)
    TIM7_IRQHandler                          0x08002c63   Thumb Code     0  startup_stm32f427_437xx.o(.text)
    TIM8_BRK_TIM12_IRQHandler                0x08002c63   Thumb Code     0  startup_stm32f427_437xx.o(.text)
    TIM8_CC_IRQHandler                       0x08002c63   Thumb Code     0  startup_stm32f427_437xx.o(.text)
    TIM8_TRG_COM_TIM14_IRQHandler            0x08002c63   Thumb Code     0  startup_stm32f427_437xx.o(.text)
    TIM8_UP_TIM13_IRQHandler                 0x08002c63   Thumb Code     0  startup_stm32f427_437xx.o(.text)
    UART4_IRQHandler                         0x08002c63   Thumb Code     0  startup_stm32f427_437xx.o(.text)
    UART5_IRQHandler                         0x08002c63   Thumb Code     0  startup_stm32f427_437xx.o(.text)
    UART7_IRQHandler                         0x08002c63   Thumb Code     0  startup_stm32f427_437xx.o(.text)
    UART8_IRQHandler                         0x08002c63   Thumb Code     0  startup_stm32f427_437xx.o(.text)
    USART2_IRQHandler                        0x08002c63   Thumb Code     0  startup_stm32f427_437xx.o(.text)
    WWDG_IRQHandler                          0x08002c63   Thumb Code     0  startup_stm32f427_437xx.o(.text)
    __user_initial_stackheap                 0x08002c65   Thumb Code     0  startup_stm32f427_437xx.o(.text)
    NVIC_PriorityGroupConfig                 0x08002c89   Thumb Code    10  misc.o(.text)
    NVIC_Init                                0x08002c93   Thumb Code   106  misc.o(.text)
    NVIC_SetVectorTable                      0x08002cfd   Thumb Code    14  misc.o(.text)
    NVIC_SystemLPConfig                      0x08002d0b   Thumb Code    34  misc.o(.text)
    SysTick_CLKSourceConfig                  0x08002d2d   Thumb Code    40  misc.o(.text)
    GPIO_DeInit                              0x08002d69   Thumb Code   268  stm32f4xx_gpio.o(.text)
    GPIO_Init                                0x08002e75   Thumb Code   144  stm32f4xx_gpio.o(.text)
    GPIO_StructInit                          0x08002f05   Thumb Code    18  stm32f4xx_gpio.o(.text)
    GPIO_PinLockConfig                       0x08002f17   Thumb Code    34  stm32f4xx_gpio.o(.text)
    GPIO_ReadInputDataBit                    0x08002f39   Thumb Code    18  stm32f4xx_gpio.o(.text)
    GPIO_ReadInputData                       0x08002f4b   Thumb Code     8  stm32f4xx_gpio.o(.text)
    GPIO_ReadOutputDataBit                   0x08002f53   Thumb Code    18  stm32f4xx_gpio.o(.text)
    GPIO_ReadOutputData                      0x08002f65   Thumb Code     8  stm32f4xx_gpio.o(.text)
    GPIO_SetBits                             0x08002f6d   Thumb Code     4  stm32f4xx_gpio.o(.text)
    GPIO_ResetBits                           0x08002f71   Thumb Code     4  stm32f4xx_gpio.o(.text)
    GPIO_WriteBit                            0x08002f75   Thumb Code    10  stm32f4xx_gpio.o(.text)
    GPIO_Write                               0x08002f7f   Thumb Code     4  stm32f4xx_gpio.o(.text)
    GPIO_ToggleBits                          0x08002f83   Thumb Code     8  stm32f4xx_gpio.o(.text)
    GPIO_PinAFConfig                         0x08002f8b   Thumb Code    70  stm32f4xx_gpio.o(.text)
    RCC_DeInit                               0x08002ffd   Thumb Code    82  stm32f4xx_rcc.o(.text)
    RCC_HSEConfig                            0x0800304f   Thumb Code    14  stm32f4xx_rcc.o(.text)
    RCC_GetFlagStatus                        0x0800305d   Thumb Code    60  stm32f4xx_rcc.o(.text)
    RCC_WaitForHSEStartUp                    0x08003099   Thumb Code    56  stm32f4xx_rcc.o(.text)
    RCC_AdjustHSICalibrationValue            0x080030d1   Thumb Code    20  stm32f4xx_rcc.o(.text)
    RCC_HSICmd                               0x080030e5   Thumb Code     6  stm32f4xx_rcc.o(.text)
    RCC_LSEConfig                            0x080030eb   Thumb Code    46  stm32f4xx_rcc.o(.text)
    RCC_LSICmd                               0x08003119   Thumb Code     6  stm32f4xx_rcc.o(.text)
    RCC_PLLConfig                            0x0800311f   Thumb Code    32  stm32f4xx_rcc.o(.text)
    RCC_PLLCmd                               0x0800313f   Thumb Code     6  stm32f4xx_rcc.o(.text)
    RCC_PLLI2SConfig                         0x08003145   Thumb Code    20  stm32f4xx_rcc.o(.text)
    RCC_PLLI2SCmd                            0x08003159   Thumb Code     6  stm32f4xx_rcc.o(.text)
    RCC_PLLSAIConfig                         0x0800315f   Thumb Code    20  stm32f4xx_rcc.o(.text)
    RCC_PLLSAICmd                            0x08003173   Thumb Code     6  stm32f4xx_rcc.o(.text)
    RCC_ClockSecuritySystemCmd               0x08003179   Thumb Code     6  stm32f4xx_rcc.o(.text)
    RCC_MCO1Config                           0x0800317f   Thumb Code    28  stm32f4xx_rcc.o(.text)
    RCC_MCO2Config                           0x0800319b   Thumb Code    28  stm32f4xx_rcc.o(.text)
    RCC_SYSCLKConfig                         0x080031b7   Thumb Code    20  stm32f4xx_rcc.o(.text)
    RCC_GetSYSCLKSource                      0x080031cb   Thumb Code    12  stm32f4xx_rcc.o(.text)
    RCC_HCLKConfig                           0x080031d7   Thumb Code    20  stm32f4xx_rcc.o(.text)
    RCC_PCLK1Config                          0x080031eb   Thumb Code    20  stm32f4xx_rcc.o(.text)
    RCC_PCLK2Config                          0x080031ff   Thumb Code    22  stm32f4xx_rcc.o(.text)
    RCC_GetClocksFreq                        0x08003215   Thumb Code   222  stm32f4xx_rcc.o(.text)
    RCC_RTCCLKConfig                         0x080032f3   Thumb Code    54  stm32f4xx_rcc.o(.text)
    RCC_RTCCLKCmd                            0x08003329   Thumb Code     8  stm32f4xx_rcc.o(.text)
    RCC_BackupResetCmd                       0x08003331   Thumb Code     8  stm32f4xx_rcc.o(.text)
    RCC_I2SCLKConfig                         0x08003339   Thumb Code     6  stm32f4xx_rcc.o(.text)
    RCC_SAIPLLI2SClkDivConfig                0x0800333f   Thumb Code    26  stm32f4xx_rcc.o(.text)
    RCC_SAIPLLSAIClkDivConfig                0x08003359   Thumb Code    28  stm32f4xx_rcc.o(.text)
    RCC_SAIBlockACLKConfig                   0x08003375   Thumb Code    20  stm32f4xx_rcc.o(.text)
    RCC_SAIBlockBCLKConfig                   0x08003389   Thumb Code    20  stm32f4xx_rcc.o(.text)
    RCC_LTDCCLKDivConfig                     0x0800339d   Thumb Code    20  stm32f4xx_rcc.o(.text)
    RCC_TIMCLKPresConfig                     0x080033b1   Thumb Code     6  stm32f4xx_rcc.o(.text)
    RCC_AHB1PeriphClockCmd                   0x080033b7   Thumb Code    82  stm32f4xx_rcc.o(.text)
    RCC_AHB2PeriphClockCmd                   0x08003409   Thumb Code    26  stm32f4xx_rcc.o(.text)
    RCC_AHB3PeriphClockCmd                   0x08003423   Thumb Code    34  stm32f4xx_rcc.o(.text)
    RCC_APB1PeriphClockCmd                   0x08003445   Thumb Code    34  stm32f4xx_rcc.o(.text)
    RCC_APB2PeriphClockCmd                   0x08003467   Thumb Code    34  stm32f4xx_rcc.o(.text)
    RCC_AHB1PeriphResetCmd                   0x08003489   Thumb Code    34  stm32f4xx_rcc.o(.text)
    RCC_AHB2PeriphResetCmd                   0x080034ab   Thumb Code    34  stm32f4xx_rcc.o(.text)
    RCC_AHB3PeriphResetCmd                   0x080034cd   Thumb Code    34  stm32f4xx_rcc.o(.text)
    RCC_APB1PeriphResetCmd                   0x080034ef   Thumb Code    34  stm32f4xx_rcc.o(.text)
    RCC_APB2PeriphResetCmd                   0x08003511   Thumb Code    34  stm32f4xx_rcc.o(.text)
    RCC_AHB1PeriphClockLPModeCmd             0x08003533   Thumb Code    34  stm32f4xx_rcc.o(.text)
    RCC_AHB2PeriphClockLPModeCmd             0x08003555   Thumb Code    34  stm32f4xx_rcc.o(.text)
    RCC_AHB3PeriphClockLPModeCmd             0x08003577   Thumb Code    34  stm32f4xx_rcc.o(.text)
    RCC_APB1PeriphClockLPModeCmd             0x08003599   Thumb Code    34  stm32f4xx_rcc.o(.text)
    RCC_APB2PeriphClockLPModeCmd             0x080035bb   Thumb Code    34  stm32f4xx_rcc.o(.text)
    RCC_LSEModeConfig                        0x080035dd   Thumb Code    40  stm32f4xx_rcc.o(.text)
    RCC_ITConfig                             0x08003605   Thumb Code    34  stm32f4xx_rcc.o(.text)
    RCC_ClearFlag                            0x08003627   Thumb Code    18  stm32f4xx_rcc.o(.text)
    RCC_GetITStatus                          0x08003639   Thumb Code    22  stm32f4xx_rcc.o(.text)
    RCC_ClearITPendingBit                    0x0800364f   Thumb Code     8  stm32f4xx_rcc.o(.text)
    SYSCFG_DeInit                            0x0800365d   Thumb Code    22  stm32f4xx_syscfg.o(.text)
    SYSCFG_MemoryRemapConfig                 0x08003673   Thumb Code     6  stm32f4xx_syscfg.o(.text)
    SYSCFG_MemorySwappingBank                0x08003679   Thumb Code     6  stm32f4xx_syscfg.o(.text)
    SYSCFG_EXTILineConfig                    0x0800367f   Thumb Code    66  stm32f4xx_syscfg.o(.text)
    SYSCFG_ETH_MediaInterfaceConfig          0x080036c1   Thumb Code     8  stm32f4xx_syscfg.o(.text)
    SYSCFG_CompensationCellCmd               0x080036c9   Thumb Code     6  stm32f4xx_syscfg.o(.text)
    SYSCFG_GetCompensationCellStatus         0x080036cf   Thumb Code    22  stm32f4xx_syscfg.o(.text)
    USART_DeInit                             0x080036f1   Thumb Code   206  stm32f4xx_usart.o(.text)
    USART_Init                               0x080037bf   Thumb Code   204  stm32f4xx_usart.o(.text)
    USART_StructInit                         0x0800388b   Thumb Code    24  stm32f4xx_usart.o(.text)
    USART_ClockInit                          0x080038a3   Thumb Code    32  stm32f4xx_usart.o(.text)
    USART_ClockStructInit                    0x080038c3   Thumb Code    12  stm32f4xx_usart.o(.text)
    USART_Cmd                                0x080038cf   Thumb Code    24  stm32f4xx_usart.o(.text)
    USART_SetPrescaler                       0x080038e7   Thumb Code    16  stm32f4xx_usart.o(.text)
    USART_OverSampling8Cmd                   0x080038f7   Thumb Code    22  stm32f4xx_usart.o(.text)
    USART_OneBitMethodCmd                    0x0800390d   Thumb Code    24  stm32f4xx_usart.o(.text)
    USART_SendData                           0x08003925   Thumb Code     8  stm32f4xx_usart.o(.text)
    USART_ReceiveData                        0x0800392d   Thumb Code    10  stm32f4xx_usart.o(.text)
    USART_SetAddress                         0x08003937   Thumb Code    18  stm32f4xx_usart.o(.text)
    USART_ReceiverWakeUpCmd                  0x08003949   Thumb Code    24  stm32f4xx_usart.o(.text)
    USART_WakeUpConfig                       0x08003961   Thumb Code    18  stm32f4xx_usart.o(.text)
    USART_LINBreakDetectLengthConfig         0x08003973   Thumb Code    18  stm32f4xx_usart.o(.text)
    USART_LINCmd                             0x08003985   Thumb Code    24  stm32f4xx_usart.o(.text)
    USART_SendBreak                          0x0800399d   Thumb Code    10  stm32f4xx_usart.o(.text)
    USART_HalfDuplexCmd                      0x080039a7   Thumb Code    24  stm32f4xx_usart.o(.text)
    USART_SetGuardTime                       0x080039bf   Thumb Code    16  stm32f4xx_usart.o(.text)
    USART_SmartCardCmd                       0x080039cf   Thumb Code    24  stm32f4xx_usart.o(.text)
    USART_SmartCardNACKCmd                   0x080039e7   Thumb Code    24  stm32f4xx_usart.o(.text)
    USART_IrDAConfig                         0x080039ff   Thumb Code    18  stm32f4xx_usart.o(.text)
    USART_IrDACmd                            0x08003a11   Thumb Code    24  stm32f4xx_usart.o(.text)
    USART_DMACmd                             0x08003a29   Thumb Code    18  stm32f4xx_usart.o(.text)
    USART_ITConfig                           0x08003a3b   Thumb Code    74  stm32f4xx_usart.o(.text)
    USART_GetFlagStatus                      0x08003a85   Thumb Code    26  stm32f4xx_usart.o(.text)
    USART_ClearFlag                          0x08003a9f   Thumb Code    18  stm32f4xx_usart.o(.text)
    USART_GetITStatus                        0x08003ab1   Thumb Code   118  stm32f4xx_usart.o(.text)
    USART_ClearITPendingBit                  0x08003b27   Thumb Code    30  stm32f4xx_usart.o(.text)
    CAN_DeInit                               0x08003b45   Thumb Code    50  stm32f4xx_can.o(.text)
    CAN_Init                                 0x08003b77   Thumb Code   276  stm32f4xx_can.o(.text)
    CAN_FilterInit                           0x08003c8b   Thumb Code   258  stm32f4xx_can.o(.text)
    CAN_StructInit                           0x08003d8d   Thumb Code    32  stm32f4xx_can.o(.text)
    CAN_SlaveStartBank                       0x08003dad   Thumb Code    48  stm32f4xx_can.o(.text)
    CAN_DBGFreeze                            0x08003ddd   Thumb Code    22  stm32f4xx_can.o(.text)
    CAN_TTComModeCmd                         0x08003df3   Thumb Code   118  stm32f4xx_can.o(.text)
    CAN_Transmit                             0x08003e69   Thumb Code   304  stm32f4xx_can.o(.text)
    CAN_TransmitStatus                       0x08003f99   Thumb Code   138  stm32f4xx_can.o(.text)
    CAN_CancelTransmit                       0x08004023   Thumb Code    48  stm32f4xx_can.o(.text)
    CAN_Receive                              0x08004053   Thumb Code   240  stm32f4xx_can.o(.text)
    CAN_FIFORelease                          0x08004143   Thumb Code    22  stm32f4xx_can.o(.text)
    CAN_MessagePending                       0x08004159   Thumb Code    30  stm32f4xx_can.o(.text)
    CAN_OperatingModeRequest                 0x08004177   Thumb Code   162  stm32f4xx_can.o(.text)
    CAN_Sleep                                0x08004219   Thumb Code    30  stm32f4xx_can.o(.text)
    CAN_WakeUp                               0x08004237   Thumb Code    48  stm32f4xx_can.o(.text)
    CAN_GetLastErrorCode                     0x08004267   Thumb Code    12  stm32f4xx_can.o(.text)
    CAN_GetReceiveErrorCounter               0x08004273   Thumb Code    10  stm32f4xx_can.o(.text)
    CAN_GetLSBTransmitErrorCounter           0x0800427d   Thumb Code    12  stm32f4xx_can.o(.text)
    CAN_ITConfig                             0x08004289   Thumb Code    18  stm32f4xx_can.o(.text)
    CAN_GetFlagStatus                        0x0800429b   Thumb Code   120  stm32f4xx_can.o(.text)
    CAN_ClearFlag                            0x08004313   Thumb Code    52  stm32f4xx_can.o(.text)
    CAN_GetITStatus                          0x08004359   Thumb Code   310  stm32f4xx_can.o(.text)
    CAN_ClearITPendingBit                    0x0800448f   Thumb Code   162  stm32f4xx_can.o(.text)
    DMA_DeInit                               0x08004535   Thumb Code   324  stm32f4xx_dma.o(.text)
    DMA_Init                                 0x08004679   Thumb Code    82  stm32f4xx_dma.o(.text)
    DMA_StructInit                           0x080046cb   Thumb Code    34  stm32f4xx_dma.o(.text)
    DMA_Cmd                                  0x080046ed   Thumb Code    22  stm32f4xx_dma.o(.text)
    DMA_PeriphIncOffsetSizeConfig            0x08004703   Thumb Code    22  stm32f4xx_dma.o(.text)
    DMA_FlowControllerConfig                 0x08004719   Thumb Code    22  stm32f4xx_dma.o(.text)
    DMA_SetCurrDataCounter                   0x0800472f   Thumb Code     4  stm32f4xx_dma.o(.text)
    DMA_GetCurrDataCounter                   0x08004733   Thumb Code     8  stm32f4xx_dma.o(.text)
    DMA_DoubleBufferModeConfig               0x0800473b   Thumb Code    24  stm32f4xx_dma.o(.text)
    DMA_DoubleBufferModeCmd                  0x08004753   Thumb Code    22  stm32f4xx_dma.o(.text)
    DMA_MemoryTargetConfig                   0x08004769   Thumb Code    10  stm32f4xx_dma.o(.text)
    DMA_GetCurrentMemoryTarget               0x08004773   Thumb Code    20  stm32f4xx_dma.o(.text)
    DMA_GetCmdStatus                         0x08004787   Thumb Code    20  stm32f4xx_dma.o(.text)
    DMA_GetFIFOStatus                        0x0800479b   Thumb Code    12  stm32f4xx_dma.o(.text)
    DMA_GetFlagStatus                        0x080047a7   Thumb Code    56  stm32f4xx_dma.o(.text)
    DMA_ClearFlag                            0x080047df   Thumb Code    40  stm32f4xx_dma.o(.text)
    DMA_ITConfig                             0x08004807   Thumb Code    58  stm32f4xx_dma.o(.text)
    DMA_GetITStatus                          0x08004841   Thumb Code    84  stm32f4xx_dma.o(.text)
    DMA_ClearITPendingBit                    0x08004895   Thumb Code    40  stm32f4xx_dma.o(.text)
    TIM_DeInit                               0x080048dd   Thumb Code   346  stm32f4xx_tim.o(.text)
    TIM_TimeBaseInit                         0x08004a37   Thumb Code   104  stm32f4xx_tim.o(.text)
    TIM_TimeBaseStructInit                   0x08004a9f   Thumb Code    18  stm32f4xx_tim.o(.text)
    TIM_PrescalerConfig                      0x08004ab1   Thumb Code     6  stm32f4xx_tim.o(.text)
    TIM_CounterModeConfig                    0x08004ab7   Thumb Code    18  stm32f4xx_tim.o(.text)
    TIM_SetCounter                           0x08004ac9   Thumb Code     4  stm32f4xx_tim.o(.text)
    TIM_SetAutoreload                        0x08004acd   Thumb Code     4  stm32f4xx_tim.o(.text)
    TIM_GetCounter                           0x08004ad1   Thumb Code     6  stm32f4xx_tim.o(.text)
    TIM_GetPrescaler                         0x08004ad7   Thumb Code     6  stm32f4xx_tim.o(.text)
    TIM_UpdateDisableConfig                  0x08004add   Thumb Code    24  stm32f4xx_tim.o(.text)
    TIM_UpdateRequestConfig                  0x08004af5   Thumb Code    24  stm32f4xx_tim.o(.text)
    TIM_ARRPreloadConfig                     0x08004b0d   Thumb Code    24  stm32f4xx_tim.o(.text)
    TIM_SelectOnePulseMode                   0x08004b25   Thumb Code    18  stm32f4xx_tim.o(.text)
    TIM_SetClockDivision                     0x08004b37   Thumb Code    18  stm32f4xx_tim.o(.text)
    TIM_Cmd                                  0x08004b49   Thumb Code    24  stm32f4xx_tim.o(.text)
    TIM_OC1Init                              0x08004b61   Thumb Code   114  stm32f4xx_tim.o(.text)
    TIM_OC2Init                              0x08004bd3   Thumb Code   154  stm32f4xx_tim.o(.text)
    TIM_OC3Init                              0x08004c6d   Thumb Code   204  stm32f4xx_tim.o(.text)
    TIM_OC4Init                              0x08004d39   Thumb Code   112  stm32f4xx_tim.o(.text)
    TIM_OCStructInit                         0x08004da9   Thumb Code    20  stm32f4xx_tim.o(.text)
    TIM_SelectOCxM                           0x08004dbd   Thumb Code    86  stm32f4xx_tim.o(.text)
    TIM_SetCompare1                          0x08004e13   Thumb Code     4  stm32f4xx_tim.o(.text)
    TIM_SetCompare2                          0x08004e17   Thumb Code     4  stm32f4xx_tim.o(.text)
    TIM_SetCompare3                          0x08004e1b   Thumb Code     4  stm32f4xx_tim.o(.text)
    TIM_SetCompare4                          0x08004e1f   Thumb Code     4  stm32f4xx_tim.o(.text)
    TIM_ForcedOC1Config                      0x08004e23   Thumb Code    18  stm32f4xx_tim.o(.text)
    TIM_ForcedOC2Config                      0x08004e35   Thumb Code    26  stm32f4xx_tim.o(.text)
    TIM_ForcedOC3Config                      0x08004e4f   Thumb Code    18  stm32f4xx_tim.o(.text)
    TIM_ForcedOC4Config                      0x08004e61   Thumb Code    26  stm32f4xx_tim.o(.text)
    TIM_OC1PreloadConfig                     0x08004e7b   Thumb Code    18  stm32f4xx_tim.o(.text)
    TIM_OC2PreloadConfig                     0x08004e8d   Thumb Code    26  stm32f4xx_tim.o(.text)
    TIM_OC3PreloadConfig                     0x08004ea7   Thumb Code    18  stm32f4xx_tim.o(.text)
    TIM_OC4PreloadConfig                     0x08004eb9   Thumb Code    26  stm32f4xx_tim.o(.text)
    TIM_OC1FastConfig                        0x08004ed3   Thumb Code    18  stm32f4xx_tim.o(.text)
    TIM_OC2FastConfig                        0x08004ee5   Thumb Code    26  stm32f4xx_tim.o(.text)
    TIM_OC3FastConfig                        0x08004eff   Thumb Code    18  stm32f4xx_tim.o(.text)
    TIM_OC4FastConfig                        0x08004f11   Thumb Code    26  stm32f4xx_tim.o(.text)
    TIM_ClearOC1Ref                          0x08004f2b   Thumb Code    18  stm32f4xx_tim.o(.text)
    TIM_ClearOC2Ref                          0x08004f3d   Thumb Code    24  stm32f4xx_tim.o(.text)
    TIM_ClearOC3Ref                          0x08004f55   Thumb Code    18  stm32f4xx_tim.o(.text)
    TIM_ClearOC4Ref                          0x08004f67   Thumb Code    24  stm32f4xx_tim.o(.text)
    TIM_OC1PolarityConfig                    0x08004f7f   Thumb Code    18  stm32f4xx_tim.o(.text)
    TIM_OC1NPolarityConfig                   0x08004f91   Thumb Code    18  stm32f4xx_tim.o(.text)
    TIM_OC2PolarityConfig                    0x08004fa3   Thumb Code    26  stm32f4xx_tim.o(.text)
    TIM_OC2NPolarityConfig                   0x08004fbd   Thumb Code    26  stm32f4xx_tim.o(.text)
    TIM_OC3PolarityConfig                    0x08004fd7   Thumb Code    26  stm32f4xx_tim.o(.text)
    TIM_OC3NPolarityConfig                   0x08004ff1   Thumb Code    26  stm32f4xx_tim.o(.text)
    TIM_OC4PolarityConfig                    0x0800500b   Thumb Code    26  stm32f4xx_tim.o(.text)
    TIM_CCxCmd                               0x08005025   Thumb Code    30  stm32f4xx_tim.o(.text)
    TIM_CCxNCmd                              0x08005043   Thumb Code    30  stm32f4xx_tim.o(.text)
    TIM_SetIC4Prescaler                      0x08005061   Thumb Code    26  stm32f4xx_tim.o(.text)
    TIM_SetIC3Prescaler                      0x080050cb   Thumb Code    18  stm32f4xx_tim.o(.text)
    TIM_SetIC2Prescaler                      0x08005125   Thumb Code    26  stm32f4xx_tim.o(.text)
    TIM_SetIC1Prescaler                      0x08005199   Thumb Code    18  stm32f4xx_tim.o(.text)
    TIM_ICInit                               0x080051e5   Thumb Code   110  stm32f4xx_tim.o(.text)
    TIM_ICStructInit                         0x08005253   Thumb Code    18  stm32f4xx_tim.o(.text)
    TIM_PWMIConfig                           0x08005265   Thumb Code   124  stm32f4xx_tim.o(.text)
    TIM_GetCapture1                          0x080052e1   Thumb Code     6  stm32f4xx_tim.o(.text)
    TIM_GetCapture2                          0x080052e7   Thumb Code     6  stm32f4xx_tim.o(.text)
    TIM_GetCapture3                          0x080052ed   Thumb Code     6  stm32f4xx_tim.o(.text)
    TIM_GetCapture4                          0x080052f3   Thumb Code     6  stm32f4xx_tim.o(.text)
    TIM_BDTRConfig                           0x080052f9   Thumb Code    32  stm32f4xx_tim.o(.text)
    TIM_BDTRStructInit                       0x08005319   Thumb Code    18  stm32f4xx_tim.o(.text)
    TIM_CtrlPWMOutputs                       0x0800532b   Thumb Code    30  stm32f4xx_tim.o(.text)
    TIM_SelectCOM                            0x08005349   Thumb Code    24  stm32f4xx_tim.o(.text)
    TIM_CCPreloadControl                     0x08005361   Thumb Code    24  stm32f4xx_tim.o(.text)
    TIM_ITConfig                             0x08005379   Thumb Code    18  stm32f4xx_tim.o(.text)
    TIM_GenerateEvent                        0x0800538b   Thumb Code     4  stm32f4xx_tim.o(.text)
    TIM_GetFlagStatus                        0x0800538f   Thumb Code    18  stm32f4xx_tim.o(.text)
    TIM_ClearFlag                            0x080053a1   Thumb Code     6  stm32f4xx_tim.o(.text)
    TIM_GetITStatus                          0x080053a7   Thumb Code    34  stm32f4xx_tim.o(.text)
    TIM_ClearITPendingBit                    0x080053c9   Thumb Code     6  stm32f4xx_tim.o(.text)
    TIM_DMAConfig                            0x080053cf   Thumb Code    10  stm32f4xx_tim.o(.text)
    TIM_DMACmd                               0x080053d9   Thumb Code    18  stm32f4xx_tim.o(.text)
    TIM_SelectCCDMA                          0x080053eb   Thumb Code    24  stm32f4xx_tim.o(.text)
    TIM_InternalClockConfig                  0x08005403   Thumb Code    12  stm32f4xx_tim.o(.text)
    TIM_SelectInputTrigger                   0x0800540f   Thumb Code    18  stm32f4xx_tim.o(.text)
    TIM_ITRxExternalClockConfig              0x08005421   Thumb Code    24  stm32f4xx_tim.o(.text)
    TIM_TIxExternalClockConfig               0x08005439   Thumb Code    62  stm32f4xx_tim.o(.text)
    TIM_ETRConfig                            0x08005477   Thumb Code    28  stm32f4xx_tim.o(.text)
    TIM_ETRClockMode1Config                  0x08005493   Thumb Code    54  stm32f4xx_tim.o(.text)
    TIM_ETRClockMode2Config                  0x080054c9   Thumb Code    32  stm32f4xx_tim.o(.text)
    TIM_SelectOutputTrigger                  0x080054e9   Thumb Code    18  stm32f4xx_tim.o(.text)
    TIM_SelectSlaveMode                      0x080054fb   Thumb Code    18  stm32f4xx_tim.o(.text)
    TIM_SelectMasterSlaveMode                0x0800550d   Thumb Code    18  stm32f4xx_tim.o(.text)
    TIM_EncoderInterfaceConfig               0x0800551f   Thumb Code    66  stm32f4xx_tim.o(.text)
    TIM_SelectHallSensor                     0x08005561   Thumb Code    24  stm32f4xx_tim.o(.text)
    TIM_RemapConfig                          0x08005579   Thumb Code     6  stm32f4xx_tim.o(.text)
    SPI_I2S_DeInit                           0x08005581   Thumb Code   152  stm32f4xx_spi.o(.text)
    SPI_Init                                 0x08005619   Thumb Code    60  stm32f4xx_spi.o(.text)
    I2S_Init                                 0x08005655   Thumb Code   396  stm32f4xx_spi.o(.text)
    SPI_StructInit                           0x080057e1   Thumb Code    24  stm32f4xx_spi.o(.text)
    I2S_StructInit                           0x080057f9   Thumb Code    20  stm32f4xx_spi.o(.text)
    SPI_Cmd                                  0x0800580d   Thumb Code    24  stm32f4xx_spi.o(.text)
    I2S_Cmd                                  0x08005825   Thumb Code    24  stm32f4xx_spi.o(.text)
    SPI_DataSizeConfig                       0x0800583d   Thumb Code    18  stm32f4xx_spi.o(.text)
    SPI_BiDirectionalLineConfig              0x0800584f   Thumb Code    28  stm32f4xx_spi.o(.text)
    SPI_NSSInternalSoftwareConfig            0x0800586b   Thumb Code    30  stm32f4xx_spi.o(.text)
    SPI_SSOutputCmd                          0x08005889   Thumb Code    24  stm32f4xx_spi.o(.text)
    SPI_TIModeCmd                            0x080058a1   Thumb Code    14  stm32f4xx_spi.o(.text)
    I2S_FullDuplexConfig                     0x080058af   Thumb Code    80  stm32f4xx_spi.o(.text)
    SPI_I2S_ReceiveData                      0x080058ff   Thumb Code     6  stm32f4xx_spi.o(.text)
    SPI_I2S_SendData                         0x08005905   Thumb Code     4  stm32f4xx_spi.o(.text)
    SPI_I2S_GetFlagStatus                    0x08005909   Thumb Code    18  stm32f4xx_spi.o(.text)
    SPI_TransmitReceive                      0x0800591b   Thumb Code   156  stm32f4xx_spi.o(.text)
    SPI_CalculateCRC                         0x080059b7   Thumb Code    24  stm32f4xx_spi.o(.text)
    SPI_TransmitCRC                          0x080059cf   Thumb Code    10  stm32f4xx_spi.o(.text)
    SPI_GetCRC                               0x080059d9   Thumb Code    16  stm32f4xx_spi.o(.text)
    SPI_GetCRCPolynomial                     0x080059e9   Thumb Code     6  stm32f4xx_spi.o(.text)
    SPI_I2S_DMACmd                           0x080059ef   Thumb Code    18  stm32f4xx_spi.o(.text)
    SPI_I2S_ITConfig                         0x08005a01   Thumb Code    32  stm32f4xx_spi.o(.text)
    SPI_I2S_ClearFlag                        0x08005a21   Thumb Code     6  stm32f4xx_spi.o(.text)
    SPI_I2S_GetITStatus                      0x08005a27   Thumb Code    52  stm32f4xx_spi.o(.text)
    SPI_I2S_ClearITPendingBit                0x08005a5b   Thumb Code    20  stm32f4xx_spi.o(.text)
    FLASH_SetLatency                         0x08005a71   Thumb Code     6  stm32f4xx_flash.o(.text)
    FLASH_PrefetchBufferCmd                  0x08005a77   Thumb Code    30  stm32f4xx_flash.o(.text)
    FLASH_InstructionCacheCmd                0x08005a95   Thumb Code    30  stm32f4xx_flash.o(.text)
    FLASH_DataCacheCmd                       0x08005ab3   Thumb Code    30  stm32f4xx_flash.o(.text)
    FLASH_InstructionCacheReset              0x08005ad1   Thumb Code    14  stm32f4xx_flash.o(.text)
    FLASH_DataCacheReset                     0x08005adf   Thumb Code    14  stm32f4xx_flash.o(.text)
    FLASH_Unlock                             0x08005aed   Thumb Code    26  stm32f4xx_flash.o(.text)
    FLASH_Lock                               0x08005b07   Thumb Code    18  stm32f4xx_flash.o(.text)
    FLASH_GetStatus                          0x08005b19   Thumb Code    90  stm32f4xx_flash.o(.text)
    FLASH_WaitForLastOperation               0x08005b73   Thumb Code    34  stm32f4xx_flash.o(.text)
    FLASH_EraseSector                        0x08005b95   Thumb Code   140  stm32f4xx_flash.o(.text)
    FLASH_EraseAllSectors                    0x08005c21   Thumb Code   118  stm32f4xx_flash.o(.text)
    FLASH_EraseAllBank1Sectors               0x08005c97   Thumb Code   112  stm32f4xx_flash.o(.text)
    FLASH_EraseAllBank2Sectors               0x08005d07   Thumb Code   112  stm32f4xx_flash.o(.text)
    FLASH_ProgramDoubleWord                  0x08005d77   Thumb Code    86  stm32f4xx_flash.o(.text)
    FLASH_ProgramWord                        0x08005dcd   Thumb Code    82  stm32f4xx_flash.o(.text)
    FLASH_ProgramHalfWord                    0x08005e1f   Thumb Code    96  stm32f4xx_flash.o(.text)
    FLASH_ProgramByte                        0x08005e7f   Thumb Code    70  stm32f4xx_flash.o(.text)
    FLASH_OB_Unlock                          0x08005ec5   Thumb Code    26  stm32f4xx_flash.o(.text)
    FLASH_OB_Lock                            0x08005edf   Thumb Code    18  stm32f4xx_flash.o(.text)
    FLASH_OB_WRPConfig                       0x08005ef1   Thumb Code    54  stm32f4xx_flash.o(.text)
    FLASH_OB_WRP1Config                      0x08005f27   Thumb Code    54  stm32f4xx_flash.o(.text)
    FLASH_OB_PCROPSelectionConfig            0x08005f5d   Thumb Code    24  stm32f4xx_flash.o(.text)
    FLASH_OB_PCROPConfig                     0x08005f75   Thumb Code    54  stm32f4xx_flash.o(.text)
    FLASH_OB_PCROP1Config                    0x08005fab   Thumb Code    54  stm32f4xx_flash.o(.text)
    FLASH_OB_RDPConfig                       0x08005fe1   Thumb Code    24  stm32f4xx_flash.o(.text)
    FLASH_OB_UserConfig                      0x08005ff9   Thumb Code    46  stm32f4xx_flash.o(.text)
    FLASH_OB_BootConfig                      0x08006027   Thumb Code    26  stm32f4xx_flash.o(.text)
    FLASH_OB_BORConfig                       0x08006041   Thumb Code    26  stm32f4xx_flash.o(.text)
    FLASH_OB_Launch                          0x0800605b   Thumb Code    30  stm32f4xx_flash.o(.text)
    FLASH_OB_GetUser                         0x08006079   Thumb Code    12  stm32f4xx_flash.o(.text)
    FLASH_OB_GetWRP                          0x08006085   Thumb Code     8  stm32f4xx_flash.o(.text)
    FLASH_OB_GetWRP1                         0x0800608d   Thumb Code     8  stm32f4xx_flash.o(.text)
    FLASH_OB_GetPCROP                        0x08006095   Thumb Code     8  stm32f4xx_flash.o(.text)
    FLASH_OB_GetPCROP1                       0x0800609d   Thumb Code     8  stm32f4xx_flash.o(.text)
    FLASH_OB_GetRDP                          0x080060a5   Thumb Code    20  stm32f4xx_flash.o(.text)
    FLASH_OB_GetBOR                          0x080060b9   Thumb Code    12  stm32f4xx_flash.o(.text)
    FLASH_ITConfig                           0x080060c5   Thumb Code    26  stm32f4xx_flash.o(.text)
    FLASH_GetFlagStatus                      0x080060df   Thumb Code    22  stm32f4xx_flash.o(.text)
    FLASH_ClearFlag                          0x080060f5   Thumb Code     8  stm32f4xx_flash.o(.text)
    EXTI_DeInit                              0x08006109   Thumb Code    28  stm32f4xx_exti.o(.text)
    EXTI_Init                                0x08006125   Thumb Code   142  stm32f4xx_exti.o(.text)
    EXTI_StructInit                          0x080061b3   Thumb Code    16  stm32f4xx_exti.o(.text)
    EXTI_GenerateSWInterrupt                 0x080061c3   Thumb Code    16  stm32f4xx_exti.o(.text)
    EXTI_GetFlagStatus                       0x080061d3   Thumb Code    22  stm32f4xx_exti.o(.text)
    EXTI_ClearFlag                           0x080061e9   Thumb Code     8  stm32f4xx_exti.o(.text)
    EXTI_GetITStatus                         0x080061f1   Thumb Code    22  stm32f4xx_exti.o(.text)
    EXTI_ClearITPendingBit                   0x08006207   Thumb Code     8  stm32f4xx_exti.o(.text)
    ADC_DeInit                               0x08006219   Thumb Code    22  stm32f4xx_adc.o(.text)
    ADC_Init                                 0x0800622f   Thumb Code    74  stm32f4xx_adc.o(.text)
    ADC_StructInit                           0x08006279   Thumb Code    20  stm32f4xx_adc.o(.text)
    ADC_CommonInit                           0x0800628d   Thumb Code    34  stm32f4xx_adc.o(.text)
    ADC_CommonStructInit                     0x080062af   Thumb Code    12  stm32f4xx_adc.o(.text)
    ADC_Cmd                                  0x080062bb   Thumb Code    22  stm32f4xx_adc.o(.text)
    ADC_AnalogWatchdogCmd                    0x080062d1   Thumb Code    16  stm32f4xx_adc.o(.text)
    ADC_AnalogWatchdogThresholdsConfig       0x080062e1   Thumb Code     6  stm32f4xx_adc.o(.text)
    ADC_AnalogWatchdogSingleChannelConfig    0x080062e7   Thumb Code    16  stm32f4xx_adc.o(.text)
    ADC_TempSensorVrefintCmd                 0x080062f7   Thumb Code    34  stm32f4xx_adc.o(.text)
    ADC_VBATCmd                              0x08006319   Thumb Code    34  stm32f4xx_adc.o(.text)
    ADC_RegularChannelConfig                 0x0800633b   Thumb Code   184  stm32f4xx_adc.o(.text)
    ADC_SoftwareStartConv                    0x080063f3   Thumb Code    10  stm32f4xx_adc.o(.text)
    ADC_GetSoftwareStartConvStatus           0x080063fd   Thumb Code    20  stm32f4xx_adc.o(.text)
    ADC_EOCOnEachRegularChannelCmd           0x08006411   Thumb Code    22  stm32f4xx_adc.o(.text)
    ADC_ContinuousModeCmd                    0x08006427   Thumb Code    22  stm32f4xx_adc.o(.text)
    ADC_DiscModeChannelCountConfig           0x0800643d   Thumb Code    24  stm32f4xx_adc.o(.text)
    ADC_DiscModeCmd                          0x08006455   Thumb Code    22  stm32f4xx_adc.o(.text)
    ADC_GetConversionValue                   0x0800646b   Thumb Code     8  stm32f4xx_adc.o(.text)
    ADC_GetMultiModeConversionValue          0x08006473   Thumb Code     8  stm32f4xx_adc.o(.text)
    ADC_DMACmd                               0x0800647b   Thumb Code    22  stm32f4xx_adc.o(.text)
    ADC_DMARequestAfterLastTransferCmd       0x08006491   Thumb Code    22  stm32f4xx_adc.o(.text)
    ADC_MultiModeDMARequestAfterLastTransferCmd 0x080064a7   Thumb Code    34  stm32f4xx_adc.o(.text)
    ADC_InjectedChannelConfig                0x080064c9   Thumb Code   130  stm32f4xx_adc.o(.text)
    ADC_InjectedSequencerLengthConfig        0x0800654b   Thumb Code    24  stm32f4xx_adc.o(.text)
    ADC_SetInjectedOffset                    0x08006563   Thumb Code    20  stm32f4xx_adc.o(.text)
    ADC_ExternalTrigInjectedConvConfig       0x08006577   Thumb Code    16  stm32f4xx_adc.o(.text)
    ADC_ExternalTrigInjectedConvEdgeConfig   0x08006587   Thumb Code    16  stm32f4xx_adc.o(.text)
    ADC_SoftwareStartInjectedConv            0x08006597   Thumb Code    10  stm32f4xx_adc.o(.text)
    ADC_GetSoftwareStartInjectedConvCmdStatus 0x080065a1   Thumb Code    20  stm32f4xx_adc.o(.text)
    ADC_AutoInjectedConvCmd                  0x080065b5   Thumb Code    22  stm32f4xx_adc.o(.text)
    ADC_InjectedDiscModeCmd                  0x080065cb   Thumb Code    22  stm32f4xx_adc.o(.text)
    ADC_GetInjectedConversionValue           0x080065e1   Thumb Code    28  stm32f4xx_adc.o(.text)
    ADC_ITConfig                             0x080065fd   Thumb Code    56  stm32f4xx_adc.o(.text)
    ADC_GetFlagStatus                        0x08006635   Thumb Code    18  stm32f4xx_adc.o(.text)
    ADC_ClearFlag                            0x08006647   Thumb Code     6  stm32f4xx_adc.o(.text)
    ADC_GetITStatus                          0x0800664d   Thumb Code    38  stm32f4xx_adc.o(.text)
    ADC_ClearITPendingBit                    0x08006673   Thumb Code    10  stm32f4xx_adc.o(.text)
    pvPortMalloc                             0x0800673f   Thumb Code   296  heap_4.o(.text)
    vPortFree                                0x08006867   Thumb Code   140  heap_4.o(.text)
    xPortGetFreeHeapSize                     0x080068f3   Thumb Code     6  heap_4.o(.text)
    xPortGetMinimumEverFreeHeapSize          0x080068f9   Thumb Code     6  heap_4.o(.text)
    vPortInitialiseBlocks                    0x080068ff   Thumb Code     2  heap_4.o(.text)
    pxPortInitialiseStack                    0x08006955   Thumb Code    38  port.o(.text)
    vPortSetupTimerInterrupt                 0x0800697b   Thumb Code    36  port.o(.text)
    xPortStartScheduler                      0x0800699f   Thumb Code   330  port.o(.text)
    vPortEndScheduler                        0x08006ae9   Thumb Code    42  port.o(.text)
    vPortEnterCritical                       0x08006b13   Thumb Code    78  port.o(.text)
    vPortExitCritical                        0x08006b61   Thumb Code    56  port.o(.text)
    xPortSysTickHandler                      0x08006b99   Thumb Code    48  port.o(.text)
    vPortValidateInterruptPriority           0x08006bc9   Thumb Code   108  port.o(.text)
    vListInitialise                          0x08006c59   Thumb Code    26  list.o(.text)
    vListInitialiseItem                      0x08006c73   Thumb Code     6  list.o(.text)
    vListInsertEnd                           0x08006c79   Thumb Code    24  list.o(.text)
    vListInsert                              0x08006c91   Thumb Code    52  list.o(.text)
    uxListRemove                             0x08006cc5   Thumb Code    40  list.o(.text)
    xQueueGenericReset                       0x08006ced   Thumb Code   146  queue.o(.text)
    xQueueGenericCreate                      0x08006da9   Thumb Code    90  queue.o(.text)
    xQueueGenericSend                        0x08006f1d   Thumb Code   420  queue.o(.text)
    xQueueCreateMutex                        0x080070df   Thumb Code    34  queue.o(.text)
    xQueueGiveMutexRecursive                 0x08007101   Thumb Code    78  queue.o(.text)
    xQueueSemaphoreTake                      0x0800717d   Thumb Code   434  queue.o(.text)
    xQueueTakeMutexRecursive                 0x0800732f   Thumb Code    78  queue.o(.text)
    xQueueCreateCountingSemaphore            0x0800737d   Thumb Code    92  queue.o(.text)
    xQueueGenericSendFromISR                 0x080073d9   Thumb Code   248  queue.o(.text)
    xQueueGiveFromISR                        0x080074d1   Thumb Code   224  queue.o(.text)
    xQueueReceive                            0x080075db   Thumb Code   362  queue.o(.text)
    xQueuePeek                               0x08007745   Thumb Code   362  queue.o(.text)
    xQueueReceiveFromISR                     0x080078af   Thumb Code   202  queue.o(.text)
    xQueuePeekFromISR                        0x08007979   Thumb Code   176  queue.o(.text)
    uxQueueMessagesWaiting                   0x08007a29   Thumb Code    42  queue.o(.text)
    uxQueueSpacesAvailable                   0x08007a53   Thumb Code    52  queue.o(.text)
    uxQueueMessagesWaitingFromISR            0x08007a87   Thumb Code    34  queue.o(.text)
    vQueueUnregisterQueue                    0x08007aa9   Thumb Code    44  queue.o(.text)
    vQueueDelete                             0x08007ad5   Thumb Code    44  queue.o(.text)
    uxQueueGetQueueNumber                    0x08007b01   Thumb Code     6  queue.o(.text)
    vQueueSetQueueNumber                     0x08007b07   Thumb Code     4  queue.o(.text)
    ucQueueGetQueueType                      0x08007b0b   Thumb Code     8  queue.o(.text)
    xQueueIsQueueEmptyFromISR                0x08007b13   Thumb Code    42  queue.o(.text)
    xQueueIsQueueFullFromISR                 0x08007b3d   Thumb Code    46  queue.o(.text)
    vQueueAddToRegistry                      0x08007b6b   Thumb Code    38  queue.o(.text)
    pcQueueGetName                           0x08007b91   Thumb Code    38  queue.o(.text)
    vQueueWaitForMessageRestricted           0x08007bb7   Thumb Code    74  queue.o(.text)
    xTaskCreate                              0x08007db5   Thumb Code    96  tasks.o(.text)
    vTaskDelete                              0x08007e51   Thumb Code   202  tasks.o(.text)
    xTaskIncrementTick                       0x08007f1b   Thumb Code   360  tasks.o(.text)
    xTaskResumeAll                           0x08008083   Thumb Code   224  tasks.o(.text)
    vTaskSuspendAll                          0x080081df   Thumb Code    12  tasks.o(.text)
    vTaskDelayUntil                          0x080081eb   Thumb Code   200  tasks.o(.text)
    vTaskDelay                               0x080082b3   Thumb Code    82  tasks.o(.text)
    eTaskGetState                            0x08008305   Thumb Code   128  tasks.o(.text)
    uxTaskPriorityGet                        0x08008385   Thumb Code    30  tasks.o(.text)
    uxTaskPriorityGetFromISR                 0x080083a3   Thumb Code    62  tasks.o(.text)
    vTaskPrioritySet                         0x080083e1   Thumb Code   324  tasks.o(.text)
    vTaskSwitchContext                       0x08008525   Thumb Code   170  tasks.o(.text)
    vTaskSuspend                             0x080085cf   Thumb Code   210  tasks.o(.text)
    vTaskResume                              0x080086f1   Thumb Code   128  tasks.o(.text)
    xTaskResumeFromISR                       0x08008771   Thumb Code   158  tasks.o(.text)
    vTaskStartScheduler                      0x080088a9   Thumb Code   122  tasks.o(.text)
    vTaskEndScheduler                        0x08008923   Thumb Code    32  tasks.o(.text)
    xTaskGetTickCount                        0x08008943   Thumb Code     6  tasks.o(.text)
    xTaskGetTickCountFromISR                 0x08008949   Thumb Code    16  tasks.o(.text)
    uxTaskGetNumberOfTasks                   0x08008959   Thumb Code     6  tasks.o(.text)
    pcTaskGetName                            0x0800895f   Thumb Code    44  tasks.o(.text)
    xTaskGetHandle                           0x08008a3b   Thumb Code   142  tasks.o(.text)
    vTaskGetInfo                             0x08008adf   Thumb Code   126  tasks.o(.text)
    uxTaskGetSystemState                     0x08008bc7   Thumb Code   154  tasks.o(.text)
    vTaskPlaceOnEventList                    0x08008c61   Thumb Code   112  tasks.o(.text)
    vTaskPlaceOnUnorderedEventList           0x08008cd1   Thumb Code   100  tasks.o(.text)
    vTaskPlaceOnEventListRestricted          0x08008d35   Thumb Code    60  tasks.o(.text)
    xTaskRemoveFromEventList                 0x08008d71   Thumb Code   128  tasks.o(.text)
    vTaskRemoveFromUnorderedEventList        0x08008df1   Thumb Code   142  tasks.o(.text)
    vTaskSetTimeOutState                     0x08008e7f   Thumb Code    50  tasks.o(.text)
    vTaskInternalSetTimeOutState             0x08008eb1   Thumb Code    14  tasks.o(.text)
    xTaskCheckForTimeOut                     0x08008ebf   Thumb Code   132  tasks.o(.text)
    vTaskMissedYield                         0x08008f43   Thumb Code     8  tasks.o(.text)
    uxTaskGetTaskNumber                      0x08008f4b   Thumb Code    14  tasks.o(.text)
    vTaskSetTaskNumber                       0x08008f59   Thumb Code     8  tasks.o(.text)
    xTaskGetCurrentTaskHandle                0x08008f61   Thumb Code     6  tasks.o(.text)
    xTaskGetSchedulerState                   0x08008f67   Thumb Code    24  tasks.o(.text)
    xTaskPriorityInherit                     0x08008f7f   Thumb Code   186  tasks.o(.text)
    xTaskPriorityDisinherit                  0x08009039   Thumb Code   228  tasks.o(.text)
    vTaskPriorityDisinheritAfterTimeout      0x0800911d   Thumb Code   230  tasks.o(.text)
    vTaskList                                0x0800922d   Thumb Code   200  tasks.o(.text)
    vTaskGetRunTimeStats                     0x080092f5   Thumb Code   168  tasks.o(.text)
    uxTaskResetEventItemValue                0x0800939d   Thumb Code    24  tasks.o(.text)
    pvTaskIncrementMutexHeldCount            0x080093b5   Thumb Code    26  tasks.o(.text)
    ulTaskNotifyTake                         0x080093cf   Thumb Code   108  tasks.o(.text)
    xTaskNotifyWait                          0x0800943b   Thumb Code   150  tasks.o(.text)
    xTaskGenericNotify                       0x080094d1   Thumb Code   340  tasks.o(.text)
    xTaskGenericNotifyFromISR                0x08009625   Thumb Code   334  tasks.o(.text)
    vTaskNotifyGiveFromISR                   0x08009773   Thumb Code   214  tasks.o(.text)
    xTaskNotifyStateClear                    0x08009849   Thumb Code    48  tasks.o(.text)
    xTimerGenericCommand                     0x080098e5   Thumb Code   126  timers.o(.text)
    xTimerCreateTimerTask                    0x08009c5b   Thumb Code   118  timers.o(.text)
    xTimerCreate                             0x08009d1f   Thumb Code    48  timers.o(.text)
    xTimerGetTimerDaemonTaskHandle           0x08009d4f   Thumb Code    42  timers.o(.text)
    xTimerGetPeriod                          0x08009d79   Thumb Code    32  timers.o(.text)
    xTimerGetExpiryTime                      0x08009d99   Thumb Code    34  timers.o(.text)
    pcTimerGetName                           0x08009dbb   Thumb Code    32  timers.o(.text)
    xTimerIsTimerActive                      0x08009ddb   Thumb Code    62  timers.o(.text)
    pvTimerGetTimerID                        0x08009e19   Thumb Code    44  timers.o(.text)
    vTimerSetTimerID                         0x08009e45   Thumb Code    44  timers.o(.text)
    uxTimerGetTimerNumber                    0x08009e71   Thumb Code     6  timers.o(.text)
    vTimerSetTimerNumber                     0x08009e77   Thumb Code     4  timers.o(.text)
    calibrate_task                           0x0800a1b1   Thumb Code   348  calibrate_task.o(.text)
    get_control_temperate                    0x0800a30d   Thumb Code     8  calibrate_task.o(.text)
    cali_param_init                          0x0800a3f9   Thumb Code   168  calibrate_task.o(.text)
    getFlashLatitude                         0x0800a5af   Thumb Code    32  calibrate_task.o(.text)
    DetectTask                               0x0800a815   Thumb Code   686  detect_task.o(.text)
    toe_is_error                             0x0800aac3   Thumb Code    20  detect_task.o(.text)
    DetectHook                               0x0800aad7   Thumb Code   288  detect_task.o(.text)
    getErrorListPoint                        0x0800abf7   Thumb Code     4  detect_task.o(.text)
    gimbal_behaviour_mode_set                0x0800af71   Thumb Code   196  gimbal_behaviour.o(.text)
    gimbal_behaviour_control_set             0x0800b441   Thumb Code   352  gimbal_behaviour.o(.text)
    gimbal_cmd_to_chassis_stop               0x0800b5a1   Thumb Code    30  gimbal_behaviour.o(.text)
    gimbal_cmd_to_shoot_stop                 0x0800b5bf   Thumb Code    30  gimbal_behaviour.o(.text)
    IsGimbalMotionless                       0x0800b5dd   Thumb Code    16  gimbal_behaviour.o(.text)
    GIMBAL_task                              0x0800bf25   Thumb Code   272  gimbal_task.o(.text)
    set_cali_gimbal_hook                     0x0800c035   Thumb Code    28  gimbal_task.o(.text)
    cmd_cali_gimbal_hook                     0x0800c13d   Thumb Code   194  gimbal_task.o(.text)
    get_yaw_motor_point                      0x0800c1ff   Thumb Code     6  gimbal_task.o(.text)
    get_pitch_motor_point                    0x0800c205   Thumb Code     6  gimbal_task.o(.text)
    getPitchAngle                            0x0800c20b   Thumb Code    34  gimbal_task.o(.text)
    getEenmyColor                            0x0800c22d   Thumb Code    60  gimbal_task.o(.text)
    INSTask                                  0x0800c43f   Thumb Code   828  ins_task.o(.text)
    INS_cali_gyro                            0x0800c77b   Thumb Code    96  ins_task.o(.text)
    INS_set_cali_gyro                        0x0800c7db   Thumb Code    28  ins_task.o(.text)
    get_INS_angle_point                      0x0800c7f7   Thumb Code     4  ins_task.o(.text)
    get_MPU6500_Gyro_Data_Point              0x0800c7fb   Thumb Code     4  ins_task.o(.text)
    get_MPU6500_Accel_Data_Point             0x0800c7ff   Thumb Code     4  ins_task.o(.text)
    EXTI9_5_IRQHandler                       0x0800c803   Thumb Code    32  ins_task.o(.text)
    DMA2_Stream5_IRQHandler                  0x0800c823   Thumb Code    66  ins_task.o(.text)
    PID_Init                                 0x0800c899   Thumb Code    92  pid.o(.text)
    PID_Calc                                 0x0800c8f5   Thumb Code   492  pid.o(.text)
    PID_clear                                0x0800cae1   Thumb Code    72  pid.o(.text)
    UsartDebugTask                           0x0800cb2d   Thumb Code   118  start_task.o(.text)
    Send_ClientData_Task                     0x0800cba3   Thumb Code    26  start_task.o(.text)
    Sned_MainFoucs_Task                      0x0800cbbd   Thumb Code    46  start_task.o(.text)
    start_task                               0x0800cbeb   Thumb Code   216  start_task.o(.text)
    StartTask                                0x0800ccc3   Thumb Code    26  start_task.o(.text)
    invSqrt                                  0x0800cdc5   Thumb Code    56  user_lib.o(.text)
    ramp_init                                0x0800cdfd   Thumb Code    40  user_lib.o(.text)
    ramp_calc                                0x0800ce25   Thumb Code    90  user_lib.o(.text)
    first_order_filter_init                  0x0800ce7f   Thumb Code    32  user_lib.o(.text)
    first_order_filter_cali                  0x0800ce9f   Thumb Code    84  user_lib.o(.text)
    abs_limit                                0x0800cef3   Thumb Code    48  user_lib.o(.text)
    sign                                     0x0800cf23   Thumb Code    26  user_lib.o(.text)
    fp32_deadline                            0x0800cf3d   Thumb Code    30  user_lib.o(.text)
    int16_deadline                           0x0800cf5b   Thumb Code    12  user_lib.o(.text)
    fp32_constrain                           0x0800cf67   Thumb Code    42  user_lib.o(.text)
    int16_constrain                          0x0800cf91   Thumb Code    22  user_lib.o(.text)
    loop_fp32_constrain                      0x0800cfa7   Thumb Code    96  user_lib.o(.text)
    theta_format                             0x0800d007   Thumb Code    24  user_lib.o(.text)
    send_data                                0x0800d031   Thumb Code    78  auto_attacktask.o(.text)
    receiveMainFocusData                     0x0800d07f   Thumb Code   180  auto_attacktask.o(.text)
    GetAutoDataPoint                         0x0800d133   Thumb Code     4  auto_attacktask.o(.text)
    iSIdentifySuccess                        0x0800d137   Thumb Code    20  auto_attacktask.o(.text)
    chassis_behaviour_mode_set               0x0800d16d   Thumb Code   150  chassis_behaviour.o(.text)
    chassis_behaviour_control_set            0x0800d441   Thumb Code   156  chassis_behaviour.o(.text)
    isChassisSwing                           0x0800d4dd   Thumb Code     6  chassis_behaviour.o(.text)
    chassis_task                             0x0800dbff   Thumb Code   192  chassis_task.o(.text)
    chassis_rc_to_control_vector             0x0800dcbf   Thumb Code   314  chassis_task.o(.text)
    GetChassisMaxOutput                      0x0800de79   Thumb Code    10  chassis_task.o(.text)
    getChassisGive_current                   0x0800de83   Thumb Code     6  chassis_task.o(.text)
    shoot_init                               0x0800e3b9   Thumb Code   488  shoot.o(.text)
    shoot_control_loop                       0x0800e7b1   Thumb Code   962  shoot.o(.text)
    IsPowerOf2                               0x0800f1cd   Thumb Code    48  circular_buffer.o(.text)
    RoundUp_PowerOf2                         0x0800f1fd   Thumb Code    56  circular_buffer.o(.text)
    RoundDown_PowerOf2                       0x0800f235   Thumb Code    56  circular_buffer.o(.text)
    CircBuf_Init                             0x0800f26d   Thumb Code    60  circular_buffer.o(.text)
    CircBuf_Alloc                            0x0800f2a9   Thumb Code    74  circular_buffer.o(.text)
    CircBuf_Free                             0x0800f2f3   Thumb Code    14  circular_buffer.o(.text)
    CircBuf_Push                             0x0800f301   Thumb Code   116  circular_buffer.o(.text)
    CircBuf_Pop                              0x0800f375   Thumb Code   108  circular_buffer.o(.text)
    CircBuf_PopOneChar                       0x0800f3e1   Thumb Code    18  circular_buffer.o(.text)
    CircBuf_At                               0x0800f3f3   Thumb Code    22  circular_buffer.o(.text)
    CircBuf_Drop                             0x0800f409   Thumb Code    24  circular_buffer.o(.text)
    CircBuf_GetAvalaibleSize                 0x0800f421   Thumb Code    22  circular_buffer.o(.text)
    CircBuf_GetUsedSize                      0x0800f437   Thumb Code    10  circular_buffer.o(.text)
    CircBuf_IsEmpty                          0x0800f441   Thumb Code    22  circular_buffer.o(.text)
    CircBuf_IsFull                           0x0800f457   Thumb Code    26  circular_buffer.o(.text)
    Get_CRC16_Check_Sum                      0x0800f471   Thumb Code    46  referee_dispatchtask.o(.text)
    Verify_CRC16_Check_Sum                   0x0800f49f   Thumb Code    60  referee_dispatchtask.o(.text)
    Get_CRC8_Check_Sum                       0x0800f4db   Thumb Code    30  referee_dispatchtask.o(.text)
    Verify_CRC8_Check_Sum                    0x0800f4f9   Thumb Code    46  referee_dispatchtask.o(.text)
    DispchRefereeTask                        0x0800f527   Thumb Code   564  referee_dispatchtask.o(.text)
    GetEenmyColor                            0x0800f75b   Thumb Code    42  referee_dispatchtask.o(.text)
    GetRealPower                             0x0800f785   Thumb Code    10  referee_dispatchtask.o(.text)
    GetPowerBuffer                           0x0800f78f   Thumb Code    14  referee_dispatchtask.o(.text)
    GetRefereeDataPoint                      0x0800f79d   Thumb Code     4  referee_dispatchtask.o(.text)
    Append_CRC16_Check_Sum                   0x0800f7a1   Thumb Code    44  referee_dispatchtask.o(.text)
    Append_CRC8_Check_Sum                    0x0800f7cd   Thumb Code    36  referee_dispatchtask.o(.text)
    SendDataToClient                         0x0800f7f1   Thumb Code   180  referee_dispatchtask.o(.text)
    AHRS_get_height                          0x0800f8a5   Thumb Code    12  ahrs_middleware.o(.text)
    AHRS_get_latitude                        0x0800f8b1   Thumb Code    12  ahrs_middleware.o(.text)
    AHRS_invSqrt                             0x0800f8bd   Thumb Code    56  ahrs_middleware.o(.text)
    AHRS_sinf                                0x0800f8f5   Thumb Code    24  ahrs_middleware.o(.text)
    AHRS_cosf                                0x0800f90d   Thumb Code    24  ahrs_middleware.o(.text)
    AHRS_tanf                                0x0800f925   Thumb Code    24  ahrs_middleware.o(.text)
    AHRS_asinf                               0x0800f93d   Thumb Code    24  ahrs_middleware.o(.text)
    AHRS_acosf                               0x0800f955   Thumb Code    24  ahrs_middleware.o(.text)
    AHRS_atan2f                              0x0800f96d   Thumb Code    32  ahrs_middleware.o(.text)
    ist8310_init                             0x0800f999   Thumb Code   140  ist8310driver.o(.text)
    ist8310_read_over                        0x0800fa25   Thumb Code   126  ist8310driver.o(.text)
    ist8310_read_mag                         0x0800faa3   Thumb Code   136  ist8310driver.o(.text)
    ist8310_GPIO_init                        0x0800fb35   Thumb Code    84  ist8310driver_middleware.o(.text)
    ist8310_com_init                         0x0800fb89   Thumb Code     2  ist8310driver_middleware.o(.text)
    ist8310_auto_com_by_mpu6500              0x0800fb8b   Thumb Code    20  ist8310driver_middleware.o(.text)
    ist8310_delay_us                         0x0800fb9f   Thumb Code    12  ist8310driver_middleware.o(.text)
    ist8310_IIC_read_single_reg              0x0800fbab   Thumb Code    40  ist8310driver_middleware.o(.text)
    ist8310_IIC_write_single_reg             0x0800fbd3   Thumb Code    32  ist8310driver_middleware.o(.text)
    ist8310_IIC_read_muli_reg                0x0800fbf3   Thumb Code    34  ist8310driver_middleware.o(.text)
    ist8310_IIC_write_muli_reg               0x0800fc15   Thumb Code    42  ist8310driver_middleware.o(.text)
    ist8310_delay_ms                         0x0800fc3f   Thumb Code    12  ist8310driver_middleware.o(.text)
    ist8310_RST_H                            0x0800fc4b   Thumb Code    12  ist8310driver_middleware.o(.text)
    ist8310_RST_L                            0x0800fc57   Thumb Code    12  ist8310driver_middleware.o(.text)
    mpu6500_init                             0x0800fc75   Thumb Code   192  mpu6500driver.o(.text)
    mpu6500_read_over                        0x0800fd35   Thumb Code   304  mpu6500driver.o(.text)
    gyro_offset                              0x0800fe65   Thumb Code    98  mpu6500driver.o(.text)
    mpu6500_read_gyro                        0x0800fec7   Thumb Code   136  mpu6500driver.o(.text)
    mpu6500_read_accel                       0x0800ff4f   Thumb Code   136  mpu6500driver.o(.text)
    mpu6500_read_temp                        0x0800ffd7   Thumb Code    72  mpu6500driver.o(.text)
    mpu6500_GPIO_init                        0x08010039   Thumb Code    48  mpu6500driver_middleware.o(.text)
    mpu6500_com_init                         0x08010069   Thumb Code     8  mpu6500driver_middleware.o(.text)
    mpu6500_middleware_delay_ms              0x08010071   Thumb Code    12  mpu6500driver_middleware.o(.text)
    mpu6500_middleware_delay_us              0x0801007d   Thumb Code    12  mpu6500driver_middleware.o(.text)
    mpu6500_SPI_NS_H                         0x08010089   Thumb Code    12  mpu6500driver_middleware.o(.text)
    mpu6500_SPI_NS_L                         0x08010095   Thumb Code    12  mpu6500driver_middleware.o(.text)
    mpu6500_write_single_reg                 0x080100ef   Thumb Code    28  mpu6500driver_middleware.o(.text)
    mpu6500_read_single_reg                  0x0801010b   Thumb Code    32  mpu6500driver_middleware.o(.text)
    mpu6500_write_muli_reg                   0x0801012b   Thumb Code    52  mpu6500driver_middleware.o(.text)
    mpu6500_read_muli_reg                    0x0801015f   Thumb Code    56  mpu6500driver_middleware.o(.text)
    arm_cos_f32                              0x080101a1   Thumb Code   108  arm_cos_f32.o(.text)
    arm_sin_f32                              0x08010219   Thumb Code   104  arm_sin_f32.o(.text)
    __use_no_semihosting                     0x0801028d   Thumb Code     2  use_no_semi_2.o(.text)
    calloc                                   0x0801028f   Thumb Code    40  calloc.o(.text)
    free                                     0x080102b7   Thumb Code    78  h1_free.o(.text)
    __2printf                                0x08010305   Thumb Code    20  noretval__2printf.o(.text)
    __2sprintf                               0x0801031d   Thumb Code    34  noretval__2sprintf.o(.text)
    __printf                                 0x08010345   Thumb Code   104  __printf.o(.text)
    _printf_str                              0x080103ad   Thumb Code    82  _printf_str.o(.text)
    _printf_int_dec                          0x08010401   Thumb Code   104  _printf_dec.o(.text)
    strcpy                                   0x08010479   Thumb Code    72  strcpy.o(.text)
    strlen                                   0x080104c1   Thumb Code    62  strlen.o(.text)
    __aeabi_memcpy                           0x080104ff   Thumb Code     0  rt_memcpy_v6.o(.text)
    __rt_memcpy                              0x080104ff   Thumb Code   138  rt_memcpy_v6.o(.text)
    _memcpy_lastbytes                        0x08010565   Thumb Code     0  rt_memcpy_v6.o(.text)
    __aeabi_memcpy4                          0x08010589   Thumb Code     0  rt_memcpy_w.o(.text)
    __aeabi_memcpy8                          0x08010589   Thumb Code     0  rt_memcpy_w.o(.text)
    __rt_memcpy_w                            0x08010589   Thumb Code   100  rt_memcpy_w.o(.text)
    _memcpy_lastbytes_aligned                0x080105d1   Thumb Code     0  rt_memcpy_w.o(.text)
    __aeabi_memset                           0x080105ed   Thumb Code    16  aeabi_memset.o(.text)
    __aeabi_memclr4                          0x080105fd   Thumb Code     0  rt_memclr_w.o(.text)
    __aeabi_memclr8                          0x080105fd   Thumb Code     0  rt_memclr_w.o(.text)
    __rt_memclr_w                            0x080105fd   Thumb Code    78  rt_memclr_w.o(.text)
    _memset_w                                0x08010601   Thumb Code     0  rt_memclr_w.o(.text)
    __use_two_region_memory                  0x0801064b   Thumb Code     2  heapauxi.o(.text)
    __rt_heap_escrow                         0x0801064d   Thumb Code     2  heapauxi.o(.text)
    __rt_heap_expand                         0x0801064f   Thumb Code     2  heapauxi.o(.text)
    __I$use$semihosting                      0x08010651   Thumb Code     0  use_no_semi.o(.text)
    __use_no_semihosting_swi                 0x08010651   Thumb Code     2  use_no_semi.o(.text)
    __rt_heap_descriptor                     0x08010655   Thumb Code     8  rt_heap_descriptor_intlibspace.o(.text)
    __use_no_heap                            0x0801065d   Thumb Code     2  hguard.o(.text)
    __heap$guard                             0x0801065f   Thumb Code     2  hguard.o(.text)
    _terminate_user_alloc                    0x08010661   Thumb Code     2  init_alloc.o(.text)
    _init_user_alloc                         0x08010663   Thumb Code     2  init_alloc.o(.text)
    __Heap_Full                              0x08010665   Thumb Code    34  init_alloc.o(.text)
    __Heap_Broken                            0x08010687   Thumb Code     6  init_alloc.o(.text)
    _init_alloc                              0x0801068d   Thumb Code    94  init_alloc.o(.text)
    malloc                                   0x080106eb   Thumb Code    94  h1_alloc.o(.text)
    __read_errno                             0x08010749   Thumb Code    10  _rserrno.o(.text)
    __set_errno                              0x08010753   Thumb Code    12  _rserrno.o(.text)
    _printf_int_common                       0x0801075f   Thumb Code   178  _printf_intcommon.o(.text)
    __lib_sel_fp_printf                      0x08010811   Thumb Code     2  _printf_fp_dec.o(.text)
    _printf_fp_dec_real                      0x080109bf   Thumb Code   620  _printf_fp_dec.o(.text)
    _printf_char_common                      0x08010c37   Thumb Code    32  _printf_char_common.o(.text)
    _sputc                                   0x08010c5d   Thumb Code    10  _sputc.o(.text)
    _printf_cs_common                        0x08010c67   Thumb Code    20  _printf_char.o(.text)
    _printf_char                             0x08010c7b   Thumb Code    16  _printf_char.o(.text)
    _printf_string                           0x08010c8b   Thumb Code     8  _printf_char.o(.text)
    _printf_char_file                        0x08010c95   Thumb Code    32  _printf_char_file.o(.text)
    __aeabi_memclr                           0x08010cb9   Thumb Code     0  rt_memclr.o(.text)
    __rt_memclr                              0x08010cb9   Thumb Code    68  rt_memclr.o(.text)
    _memset                                  0x08010cbd   Thumb Code     0  rt_memclr.o(.text)
    __user_libspace                          0x08010cfd   Thumb Code     8  libspace.o(.text)
    __user_perproc_libspace                  0x08010cfd   Thumb Code     0  libspace.o(.text)
    __user_perthread_libspace                0x08010cfd   Thumb Code     0  libspace.o(.text)
    __rt_locale                              0x08010d05   Thumb Code     8  rt_locale_intlibspace.o(.text)
    __aeabi_errno_addr                       0x08010d0d   Thumb Code     8  rt_errno_addr_intlibspace.o(.text)
    __errno$intlibspace                      0x08010d0d   Thumb Code     0  rt_errno_addr_intlibspace.o(.text)
    __rt_errno_addr$intlibspace              0x08010d0d   Thumb Code     0  rt_errno_addr_intlibspace.o(.text)
    __Heap_Initialize                        0x08010d15   Thumb Code    10  h1_init.o(.text)
    __Heap_DescSize                          0x08010d1f   Thumb Code     4  h1_init.o(.text)
    __Heap_ProvideMemory                     0x08010d23   Thumb Code    52  h1_extend.o(.text)
    _ll_udiv10                               0x08010d57   Thumb Code   138  lludiv10.o(.text)
    _fp_trap                                 0x08010de1   Thumb Code    44  _fptrap.o(.text)
    _printf_fp_infnan                        0x08010e11   Thumb Code   112  _printf_fp_infnan.o(.text)
    _btod_etento                             0x08010e91   Thumb Code   216  bigflt0.o(.text)
    ferror                                   0x08010f6d   Thumb Code     8  ferror.o(.text)
    __rt_SIGRTMEM                            0x08010f75   Thumb Code    14  defsig_rtmem_outer.o(.text)
    __user_setup_stackheap                   0x08010f83   Thumb Code    74  sys_stackheap_outer.o(.text)
    exit                                     0x08010fcd   Thumb Code    12  exit.o(.text)
    __sig_exit                               0x08010fd9   Thumb Code    10  defsig_exit.o(.text)
    __rt_SIGFPE                              0x08010fe3   Thumb Code    14  defsig_fpe_outer.o(.text)
    __rt_SIGRTMEM_inner                      0x08010ff1   Thumb Code    22  defsig_rtmem_inner.o(.text)
    strcmp                                   0x08011041   Thumb Code   128  strcmpv7m.o(.text)
    __default_signal_display                 0x080110c1   Thumb Code    50  defsig_general.o(.text)
    __rt_SIGFPE_inner                        0x080110f5   Thumb Code    62  defsig_fpe_inner.o(.text)
    _btod_d2e                                0x080111a1   Thumb Code    62  btod.o(CL$$btod_d2e)
    _d2e_denorm_low                          0x080111df   Thumb Code    70  btod.o(CL$$btod_d2e_denorm_low)
    _d2e_norm_op1                            0x08011225   Thumb Code    96  btod.o(CL$$btod_d2e_norm_op1)
    __btod_div_common                        0x08011285   Thumb Code   696  btod.o(CL$$btod_div_common)
    _e2e                                     0x080115bd   Thumb Code   198  btod.o(CL$$btod_e2e)
    _btod_ediv                               0x08011683   Thumb Code    40  btod.o(CL$$btod_ediv)
    _btod_emul                               0x080116ab   Thumb Code    40  btod.o(CL$$btod_emul)
    __btod_mult_common                       0x080116d3   Thumb Code   580  btod.o(CL$$btod_mult_common)
    AHRS_init                                0x08011931   Thumb Code   626  ahrs.o(i.AHRS_init)
    AHRS_update                              0x08011bcd   Thumb Code   314  ahrs.o(i.AHRS_update)
    __ARM_fpclassify                         0x08011d07   Thumb Code    48  fpclassify.o(i.__ARM_fpclassify)
    __ARM_fpclassifyf                        0x08011d37   Thumb Code    38  fpclassifyf.o(i.__ARM_fpclassifyf)
    __hardfp_acosf                           0x08011d5d   Thumb Code   234  acosf.o(i.__hardfp_acosf)
    __hardfp_asinf                           0x08011e75   Thumb Code   258  asinf.o(i.__hardfp_asinf)
    __hardfp_atan2f                          0x08011fa1   Thumb Code   502  atan2f.o(i.__hardfp_atan2f)
    __hardfp_fabs                            0x080121f1   Thumb Code    20  fabs.o(i.__hardfp_fabs)
    __hardfp_tanf                            0x08012205   Thumb Code   322  tanf.o(i.__hardfp_tanf)
    __mathlib_flt_infnan                     0x08012381   Thumb Code     6  funder.o(i.__mathlib_flt_infnan)
    __mathlib_flt_infnan2                    0x08012387   Thumb Code     6  funder.o(i.__mathlib_flt_infnan2)
    __mathlib_flt_invalid                    0x0801238d   Thumb Code    10  funder.o(i.__mathlib_flt_invalid)
    __mathlib_flt_underflow                  0x0801239d   Thumb Code    10  funder.o(i.__mathlib_flt_underflow)
    __mathlib_rredf2                         0x080123ad   Thumb Code   316  rredf.o(i.__mathlib_rredf2)
    get_angle                                0x080129c9   Thumb Code   232  ahrs.o(i.get_angle)
    sqrtf                                    0x08012b35   Thumb Code    62  sqrtf_full.o(i.sqrtf)
    _get_lc_numeric                          0x08012bed   Thumb Code    44  lc_numeric_c.o(locale$$code)
    __aeabi_d2f                              0x08012c19   Thumb Code     0  d2f_clz.o(x$fpl$d2f)
    _d2f                                     0x08012c19   Thumb Code   700  d2f_clz.o(x$fpl$d2f)
    __fpl_dcmp_Inf                           0x08012edd   Thumb Code    24  dcmpi.o(x$fpl$dcmpinf)
    __dflt_normalise                         0x08012ef5   Thumb Code    26  dflt_clz.o(x$fpl$dfltn)
    __aeabi_cdcmple                          0x08012f11   Thumb Code     0  dleqf.o(x$fpl$dleqf)
    _dcmple                                  0x08012f11   Thumb Code   120  dleqf.o(x$fpl$dleqf)
    __fpl_dcmple_InfNaN                      0x08012f69   Thumb Code     0  dleqf.o(x$fpl$dleqf)
    __fpl_dnaninf                            0x08012f89   Thumb Code   258  dnaninf.o(x$fpl$dnaninf)
    __fpl_drenorm2                           0x0801308b   Thumb Code   106  drenorm_clz.o(x$fpl$drenorm)
    __fpl_drenorm1                           0x080130f5   Thumb Code     6  drenorm_clz.o(x$fpl$drenorm)
    __fpl_dretinf                            0x080130fb   Thumb Code    12  dretinf.o(x$fpl$dretinf)
    __aeabi_cdrcmple                         0x08013107   Thumb Code     0  drleqf.o(x$fpl$drleqf)
    _drcmple                                 0x08013107   Thumb Code    98  drleqf.o(x$fpl$drleqf)
    __dunder                                 0x08013169   Thumb Code   314  dunder_clz.o(x$fpl$dunder)
    __dunder_d                               0x080132a3   Thumb Code    64  dunder_clz.o(x$fpl$dunder)
    __fpl_exception                          0x080132e5   Thumb Code   454  except.o(x$fpl$exception)
    __aeabi_f2d                              0x080134d1   Thumb Code     0  f2d.o(x$fpl$f2d)
    _f2d                                     0x080134d1   Thumb Code   122  f2d.o(x$fpl$f2d)
    __fpl_fnaninf                            0x0801354b   Thumb Code   242  fnaninf.o(x$fpl$fnaninf)
    _fp_init                                 0x0801363d   Thumb Code    10  fpinit.o(x$fpl$fpinit)
    __fplib_config_fpu_vfp                   0x08013645   Thumb Code     0  fpinit.o(x$fpl$fpinit)
    __fplib_config_pureend_doubles           0x08013645   Thumb Code     0  fpinit.o(x$fpl$fpinit)
    __fpl_fretinf                            0x08013647   Thumb Code    10  fretinf.o(x$fpl$fretinf)
    __funder                                 0x08013651   Thumb Code   254  funder_clz.o(x$fpl$funder)
    __funder_d                               0x0801374f   Thumb Code    62  funder_clz.o(x$fpl$funder)
    __ieee_status                            0x0801378d   Thumb Code    28  istatus.o(x$fpl$ieeestatus)
    _printf_fp_dec                           0x080137ad   Thumb Code     4  printf1.o(x$fpl$printf1)
    __fpl_return_NaN                         0x080137b1   Thumb Code   178  retnan.o(x$fpl$retnan)
    _fp_trapveneer                           0x08013863   Thumb Code    36  trapv.o(x$fpl$trapveneer)
    __fpl_cmpreturn                          0x08013887   Thumb Code    90  trapv.o(x$fpl$trapveneer)
    __I$use$fp                               0x080138e0   Number         0  usenofp.o(x$fpl$usenofp)
    CRC8_INIT                                0x080139fc   Data           1  referee_dispatchtask.o(.constdata)
    CRC8_TAB                                 0x080139fd   Data         256  referee_dispatchtask.o(.constdata)
    wCRC_Table                               0x08013afe   Data         512  referee_dispatchtask.o(.constdata)
    sinTable_f32                             0x08013d40   Data        2052  arm_common_tables.o(.constdata)
    Region$$Table$$Base                      0x080145f8   Number         0  anon$$obj.o(Region$$Table)
    Region$$Table$$Limit                     0x08014618   Number         0  anon$$obj.o(Region$$Table)
    failcnt                                  0x20000000   Data           2  stm32f4xx_it.o(.data)
    SystemCoreClock                          0x20000008   Data           4  system_stm32f4xx.o(.data)
    AHBPrescTable                            0x2000000c   Data          16  system_stm32f4xx.o(.data)
    FreeRTOSRunTimeTicks                     0x2000001c   Data           4  basicperipherals.o(.data)
    SectorsWRPStatus                         0x20000024   Data           4  flash.o(.data)
    __stdout                                 0x2000002c   Data           4  usart.o(.data)
    pxCurrentTCB                             0x20000064   Data           4  tasks.o(.data)
    cali_hook_fun                            0x200000e4   Data          20  calibrate_task.o(.data)
    test                                     0x20000119   Data           1  gimbal_behaviour.o(.data)
    ration_y                                 0x2000011c   Data           4  gimbal_behaviour.o(.data)
    ration_p                                 0x20000120   Data           4  gimbal_behaviour.o(.data)
    Yaw_Can_Set_Current                      0x20000144   Data           2  gimbal_task.o(.data)
    Pitch_Can_Set_Current                    0x20000146   Data           2  gimbal_task.o(.data)
    Shoot_Can_Set_Current                    0x20000148   Data           2  gimbal_task.o(.data)
    time_delay                               0x2000014a   Data           1  gimbal_task.o(.data)
    yaw_ins_int_1000                         0x2000014c   Data           4  gimbal_task.o(.data)
    pitch_ins_int_1000                       0x20000150   Data           4  gimbal_task.o(.data)
    yaw_ins_set_1000                         0x20000154   Data           4  gimbal_task.o(.data)
    pitch_ins_set_1000                       0x20000158   Data           4  gimbal_task.o(.data)
    pitch_relative_set_1000                  0x2000015c   Data           4  gimbal_task.o(.data)
    pitch_relative_angle_1000                0x20000160   Data           4  gimbal_task.o(.data)
    yaw_speed_int_1000                       0x20000164   Data           4  gimbal_task.o(.data)
    pitch_speed_int_1000                     0x20000168   Data           4  gimbal_task.o(.data)
    yaw_speed_set_int_1000                   0x2000016c   Data           4  gimbal_task.o(.data)
    pitch_speed_set_int_1000                 0x20000170   Data           4  gimbal_task.o(.data)
    GIMBALTask_Handler                       0x20000204   Data           4  start_task.o(.data)
    ChassisTask_Handler                      0x20000214   Data           4  start_task.o(.data)
    pitch                                    0x20000218   Data           1  start_task.o(.data)
    Auto_Origion                             0x2000021a   Data           6  auto_attacktask.o(.data)
    SendBuff                                 0x20000220   Data           4  auto_attacktask.o(.data)
    rx_fail_cnt                              0x20000224   Data           2  auto_attacktask.o(.data)
    shoot_mode                               0x2000023c   Data           1  shoot.o(.data)
    freOfSmallBullet                         0x20000240   Data           4  shoot.o(.data)
    freOfBigBullet                           0x20000244   Data           4  shoot.o(.data)
    speedOfBigBullet                         0x20000248   Data           4  shoot.o(.data)
    speedOfSmallBullet                       0x2000024c   Data           2  shoot.o(.data)
    only_one_bulet_flag                      0x2000024e   Data           1  shoot.o(.data)
    crc_fail_cnt                             0x2000025c   Data           2  referee_dispatchtask.o(.data)
    Len                                      0x20000260   Data           4  referee_dispatchtask.o(.data)
    frame_len                                0x20000264   Data           4  referee_dispatchtask.o(.data)
    CRC_INIT                                 0x20000268   Data           2  referee_dispatchtask.o(.data)
    sbus_rx_buffer                           0x2000027c   Data          72  remotdbus.o(.bss)
    rc_ctrl                                  0x200002c4   Data          22  remotdbus.o(.bss)
    USART6_RxBuf0                            0x20000348   Data        1300  usart6.o(.bss)
    USART6_RxBuf1                            0x2000085c   Data        1300  usart6.o(.bss)
    USART6_TxBuf                             0x20000d70   Data         300  usart6.o(.bss)
    USART6_TxBuff                            0x20000e9c   Data        3500  usart6.o(.bss)
    USART6_RxBuff                            0x20001c48   Data        3500  usart6.o(.bss)
    USART6_RxCBuf                            0x200029f4   Data          16  usart6.o(.bss)
    USART6_TxCBuf                            0x20002a04   Data          16  usart6.o(.bss)
    xQueueRegistry                           0x20015614   Data          64  queue.o(.bss)
    errorList                                0x200159d5   Data         324  detect_task.o(.bss)
    gimbal_control                           0x20015b1c   Data         496  gimbal_task.o(.bss)
    AutoData                                 0x20015e30   Data          20  auto_attacktask.o(.bss)
    mainfocus_rx_buffer                      0x20015e44   Data         200  auto_attacktask.o(.bss)
    trigger_motor_pid                        0x2001613c   Data         216  shoot.o(.bss)
    fric_motor_pid                           0x20016214   Data         144  shoot.o(.bss)
    trigger_motor                            0x200162a4   Data         300  shoot.o(.bss)
    fric_motor                               0x200163d0   Data         200  shoot.o(.bss)
    Transmission_BufferOfUsart6              0x200164c8   Data          50  referee_dispatchtask.o(.bss)
    Referee_date1                            0x200164fa   Data          86  referee_dispatchtask.o(.bss)
    __libspace_start                         0x2001656c   Data          96  libspace.o(.bss)
    __temporary_stack_top$libspace           0x200165cc   Data           0  libspace.o(.bss)



==============================================================================

Memory Map of the image

  Image Entry point : 0x080001ad

  Load Region LR_IROM1 (Base: 0x08000000, Size: 0x000148b0, Max: 0x00200000, ABSOLUTE, COMPRESSED[0x000146b8])

    Execution Region ER_IROM1 (Base: 0x08000000, Size: 0x00014634, Max: 0x00200000, ABSOLUTE)

    Base Addr    Size         Type   Attr      Idx    E Section Name        Object

    0x08000000   0x000001ac   Data   RO          772    RESET               startup_stm32f427_437xx.o
    0x080001ac   0x00000008   Code   RO         2248  * !!!main             c_w.l(__main.o)
    0x080001b4   0x00000034   Code   RO         2653    !!!scatter          c_w.l(__scatter.o)
    0x080001e8   0x0000005a   Code   RO         2651    !!dczerorl2         c_w.l(__dczerorl2.o)
    0x08000242   0x00000002   PAD
    0x08000244   0x0000001c   Code   RO         2655    !!handler_zi        c_w.l(__scatter_zi.o)
    0x08000260   0x00000000   Code   RO         2231    .ARM.Collect$$_printf_percent$$00000000  c_w.l(_printf_percent.o)
    0x08000260   0x00000006   Code   RO         2230    .ARM.Collect$$_printf_percent$$00000003  c_w.l(_printf_f.o)
    0x08000266   0x00000006   Code   RO         2228    .ARM.Collect$$_printf_percent$$00000009  c_w.l(_printf_d.o)
    0x0800026c   0x00000006   Code   RO         2229    .ARM.Collect$$_printf_percent$$0000000A  c_w.l(_printf_u.o)
    0x08000272   0x00000006   Code   RO         2227    .ARM.Collect$$_printf_percent$$00000013  c_w.l(_printf_c.o)
    0x08000278   0x00000004   Code   RO         2360    .ARM.Collect$$_printf_percent$$00000017  c_w.l(_printf_percent_end.o)
    0x0800027c   0x00000002   Code   RO         2586    .ARM.Collect$$libinit$$00000000  c_w.l(libinit.o)
    0x0800027e   0x00000004   Code   RO         2504    .ARM.Collect$$libinit$$00000001  c_w.l(libinit2.o)
    0x08000282   0x00000000   Code   RO         2507    .ARM.Collect$$libinit$$00000004  c_w.l(libinit2.o)
    0x08000282   0x00000008   Code   RO         2508    .ARM.Collect$$libinit$$00000005  c_w.l(libinit2.o)
    0x0800028a   0x00000000   Code   RO         2510    .ARM.Collect$$libinit$$0000000A  c_w.l(libinit2.o)
    0x0800028a   0x00000000   Code   RO         2512    .ARM.Collect$$libinit$$0000000C  c_w.l(libinit2.o)
    0x0800028a   0x00000000   Code   RO         2514    .ARM.Collect$$libinit$$0000000E  c_w.l(libinit2.o)
    0x0800028a   0x00000006   Code   RO         2515    .ARM.Collect$$libinit$$0000000F  c_w.l(libinit2.o)
    0x08000290   0x00000000   Code   RO         2517    .ARM.Collect$$libinit$$00000011  c_w.l(libinit2.o)
    0x08000290   0x00000000   Code   RO         2519    .ARM.Collect$$libinit$$00000013  c_w.l(libinit2.o)
    0x08000290   0x00000000   Code   RO         2521    .ARM.Collect$$libinit$$00000015  c_w.l(libinit2.o)
    0x08000290   0x0000000a   Code   RO         2522    .ARM.Collect$$libinit$$00000016  c_w.l(libinit2.o)
    0x0800029a   0x00000000   Code   RO         2523    .ARM.Collect$$libinit$$00000017  c_w.l(libinit2.o)
    0x0800029a   0x00000000   Code   RO         2525    .ARM.Collect$$libinit$$00000019  c_w.l(libinit2.o)
    0x0800029a   0x00000000   Code   RO         2527    .ARM.Collect$$libinit$$0000001B  c_w.l(libinit2.o)
    0x0800029a   0x00000000   Code   RO         2529    .ARM.Collect$$libinit$$0000001D  c_w.l(libinit2.o)
    0x0800029a   0x00000000   Code   RO         2531    .ARM.Collect$$libinit$$0000001F  c_w.l(libinit2.o)
    0x0800029a   0x00000000   Code   RO         2533    .ARM.Collect$$libinit$$00000021  c_w.l(libinit2.o)
    0x0800029a   0x00000000   Code   RO         2535    .ARM.Collect$$libinit$$00000023  c_w.l(libinit2.o)
    0x0800029a   0x00000000   Code   RO         2537    .ARM.Collect$$libinit$$00000025  c_w.l(libinit2.o)
    0x0800029a   0x00000000   Code   RO         2541    .ARM.Collect$$libinit$$0000002C  c_w.l(libinit2.o)
    0x0800029a   0x00000000   Code   RO         2543    .ARM.Collect$$libinit$$0000002E  c_w.l(libinit2.o)
    0x0800029a   0x00000000   Code   RO         2545    .ARM.Collect$$libinit$$00000030  c_w.l(libinit2.o)
    0x0800029a   0x00000000   Code   RO         2547    .ARM.Collect$$libinit$$00000032  c_w.l(libinit2.o)
    0x0800029a   0x00000002   Code   RO         2548    .ARM.Collect$$libinit$$00000033  c_w.l(libinit2.o)
    0x0800029c   0x00000002   Code   RO         2648    .ARM.Collect$$libshutdown$$00000000  c_w.l(libshutdown.o)
    0x0800029e   0x00000000   Code   RO         2610    .ARM.Collect$$libshutdown$$00000003  c_w.l(libshutdown2.o)
    0x0800029e   0x00000000   Code   RO         2613    .ARM.Collect$$libshutdown$$00000006  c_w.l(libshutdown2.o)
    0x0800029e   0x00000000   Code   RO         2616    .ARM.Collect$$libshutdown$$00000009  c_w.l(libshutdown2.o)
    0x0800029e   0x00000000   Code   RO         2618    .ARM.Collect$$libshutdown$$0000000B  c_w.l(libshutdown2.o)
    0x0800029e   0x00000000   Code   RO         2621    .ARM.Collect$$libshutdown$$0000000E  c_w.l(libshutdown2.o)
    0x0800029e   0x00000002   Code   RO         2622    .ARM.Collect$$libshutdown$$0000000F  c_w.l(libshutdown2.o)
    0x080002a0   0x00000000   Code   RO         2318    .ARM.Collect$$rtentry$$00000000  c_w.l(__rtentry.o)
    0x080002a0   0x00000000   Code   RO         2421    .ARM.Collect$$rtentry$$00000002  c_w.l(__rtentry2.o)
    0x080002a0   0x00000006   Code   RO         2433    .ARM.Collect$$rtentry$$00000004  c_w.l(__rtentry4.o)
    0x080002a6   0x00000000   Code   RO         2423    .ARM.Collect$$rtentry$$00000009  c_w.l(__rtentry2.o)
    0x080002a6   0x00000004   Code   RO         2424    .ARM.Collect$$rtentry$$0000000A  c_w.l(__rtentry2.o)
    0x080002aa   0x00000000   Code   RO         2426    .ARM.Collect$$rtentry$$0000000C  c_w.l(__rtentry2.o)
    0x080002aa   0x00000008   Code   RO         2427    .ARM.Collect$$rtentry$$0000000D  c_w.l(__rtentry2.o)
    0x080002b2   0x00000002   Code   RO         2592    .ARM.Collect$$rtexit$$00000000  c_w.l(rtexit.o)
    0x080002b4   0x00000000   Code   RO         2624    .ARM.Collect$$rtexit$$00000002  c_w.l(rtexit2.o)
    0x080002b4   0x00000004   Code   RO         2625    .ARM.Collect$$rtexit$$00000003  c_w.l(rtexit2.o)
    0x080002b8   0x00000006   Code   RO         2626    .ARM.Collect$$rtexit$$00000004  c_w.l(rtexit2.o)
    0x080002be   0x00000002   PAD
    0x080002c0   0x000000be   Code   RO         1079    .emb_text           port.o
    0x0800037e   0x00000002   PAD
    0x08000380   0x00000000   Code   RO         2445    .emb_text           c_w.l(maybetermalloc1.o)
    0x08000380   0x0000007e   Code   RO            3    .text               main.o
    0x080003fe   0x00000002   PAD
    0x08000400   0x000002d4   Code   RO          250    .text               stm32f4xx_it.o
    0x080006d4   0x00000244   Code   RO          333    .text               system_stm32f4xx.o
    0x08000918   0x000003d0   Code   RO          359    .text               basicperipherals.o
    0x08000ce8   0x0000035c   Code   RO          385    .text               remotdbus.o
    0x08001044   0x00000130   Code   RO          411    .text               frictionmoterpwm.o
    0x08001174   0x000005c0   Code   RO          434    .text               motorcan.o
    0x08001734   0x000001c4   Code   RO          483    .text               mainfocus_usart.o
    0x080018f8   0x0000010c   Code   RO          510    .text               adc.o
    0x08001a04   0x000000d8   Code   RO          530    .text               buzzer.o
    0x08001adc   0x00000088   Code   RO          550    .text               exit_init.o
    0x08001b64   0x0000057c   Code   RO          573    .text               flash.o
    0x080020e0   0x00000250   Code   RO          599    .text               spi.o
    0x08002330   0x000002dc   Code   RO          622    .text               timer.o
    0x0800260c   0x00000094   Code   RO          642    .text               power_ctrl.o
    0x080026a0   0x0000040c   Code   RO          662    .text               usart6.o
    0x08002aac   0x000000ec   Code   RO          699    .text               delay.o
    0x08002b98   0x000000b0   Code   RO          739    .text               usart.o
    0x08002c48   0x00000040   Code   RO          773    .text               startup_stm32f427_437xx.o
    0x08002c88   0x000000e0   Code   RO          779    .text               misc.o
    0x08002d68   0x00000294   Code   RO          799    .text               stm32f4xx_gpio.o
    0x08002ffc   0x00000660   Code   RO          819    .text               stm32f4xx_rcc.o
    0x0800365c   0x00000094   Code   RO          841    .text               stm32f4xx_syscfg.o
    0x080036f0   0x00000454   Code   RO          861    .text               stm32f4xx_usart.o
    0x08003b44   0x000009f0   Code   RO          881    .text               stm32f4xx_can.o
    0x08004534   0x000003a8   Code   RO          901    .text               stm32f4xx_dma.o
    0x080048dc   0x00000ca2   Code   RO          921    .text               stm32f4xx_tim.o
    0x0800557e   0x00000002   PAD
    0x08005580   0x000004ee   Code   RO          941    .text               stm32f4xx_spi.o
    0x08005a6e   0x00000002   PAD
    0x08005a70   0x00000698   Code   RO          961    .text               stm32f4xx_flash.o
    0x08006108   0x00000110   Code   RO         1001    .text               stm32f4xx_exti.o
    0x08006218   0x00000464   Code   RO         1021    .text               stm32f4xx_adc.o
    0x0800667c   0x0000029c   Code   RO         1039    .text               heap_4.o
    0x08006918   0x00000340   Code   RO         1080    .text               port.o
    0x08006c58   0x00000094   Code   RO         1145    .text               list.o
    0x08006cec   0x00000f18   Code   RO         1160    .text               queue.o
    0x08007c04   0x00001c90   Code   RO         1205    .text               tasks.o
    0x08009894   0x000005ec   Code   RO         1231    .text               timers.o
    0x08009e80   0x00000774   Code   RO         1251    .text               calibrate_task.o
    0x0800a5f4   0x00000614   Code   RO         1294    .text               detect_task.o
    0x0800ac08   0x00000a08   Code   RO         1325    .text               gimbal_behaviour.o
    0x0800b610   0x00000c74   Code   RO         1361    .text               gimbal_task.o
    0x0800c284   0x00000614   Code   RO         1396    .text               ins_task.o
    0x0800c898   0x00000294   Code   RO         1438    .text               pid.o
    0x0800cb2c   0x00000298   Code   RO         1458    .text               start_task.o
    0x0800cdc4   0x0000026c   Code   RO         1510    .text               user_lib.o
    0x0800d030   0x0000013c   Code   RO         1530    .text               auto_attacktask.o
    0x0800d16c   0x000003b0   Code   RO         1557    .text               chassis_behaviour.o
    0x0800d51c   0x0000097c   Code   RO         1585    .text               chassis_task.o
    0x0800de98   0x00001334   Code   RO         1609    .text               shoot.o
    0x0800f1cc   0x000002a4   Code   RO         1638    .text               circular_buffer.o
    0x0800f470   0x00000434   Code   RO         1655    .text               referee_dispatchtask.o
    0x0800f8a4   0x000000f4   Code   RO         1684    .text               ahrs_middleware.o
    0x0800f998   0x0000019c   Code   RO         1790    .text               ist8310driver.o
    0x0800fb34   0x00000140   Code   RO         1818    .text               ist8310driver_middleware.o
    0x0800fc74   0x000003c4   Code   RO         1844    .text               mpu6500driver.o
    0x08010038   0x00000168   Code   RO         1867    .text               mpu6500driver_middleware.o
    0x080101a0   0x00000078   Code   RO         1975    .text               arm_cortexM4lf_math.lib(arm_cos_f32.o)
    0x08010218   0x00000074   Code   RO         2028    .text               arm_cortexM4lf_math.lib(arm_sin_f32.o)
    0x0801028c   0x00000002   Code   RO         2133    .text               c_w.l(use_no_semi_2.o)
    0x0801028e   0x00000028   Code   RO         2137    .text               c_w.l(calloc.o)
    0x080102b6   0x0000004e   Code   RO         2139    .text               c_w.l(h1_free.o)
    0x08010304   0x00000018   Code   RO         2197    .text               c_w.l(noretval__2printf.o)
    0x0801031c   0x00000028   Code   RO         2199    .text               c_w.l(noretval__2sprintf.o)
    0x08010344   0x00000068   Code   RO         2201    .text               c_w.l(__printf.o)
    0x080103ac   0x00000052   Code   RO         2203    .text               c_w.l(_printf_str.o)
    0x080103fe   0x00000002   PAD
    0x08010400   0x00000078   Code   RO         2205    .text               c_w.l(_printf_dec.o)
    0x08010478   0x00000048   Code   RO         2232    .text               c_w.l(strcpy.o)
    0x080104c0   0x0000003e   Code   RO         2234    .text               c_w.l(strlen.o)
    0x080104fe   0x0000008a   Code   RO         2236    .text               c_w.l(rt_memcpy_v6.o)
    0x08010588   0x00000064   Code   RO         2238    .text               c_w.l(rt_memcpy_w.o)
    0x080105ec   0x00000010   Code   RO         2242    .text               c_w.l(aeabi_memset.o)
    0x080105fc   0x0000004e   Code   RO         2244    .text               c_w.l(rt_memclr_w.o)
    0x0801064a   0x00000006   Code   RO         2246    .text               c_w.l(heapauxi.o)
    0x08010650   0x00000002   Code   RO         2314    .text               c_w.l(use_no_semi.o)
    0x08010652   0x00000002   PAD
    0x08010654   0x00000008   Code   RO         2322    .text               c_w.l(rt_heap_descriptor_intlibspace.o)
    0x0801065c   0x00000004   Code   RO         2324    .text               c_w.l(hguard.o)
    0x08010660   0x0000008a   Code   RO         2326    .text               c_w.l(init_alloc.o)
    0x080106ea   0x0000005e   Code   RO         2332    .text               c_w.l(h1_alloc.o)
    0x08010748   0x00000016   Code   RO         2346    .text               c_w.l(_rserrno.o)
    0x0801075e   0x000000b2   Code   RO         2348    .text               c_w.l(_printf_intcommon.o)
    0x08010810   0x0000041a   Code   RO         2350    .text               c_w.l(_printf_fp_dec.o)
    0x08010c2a   0x00000002   PAD
    0x08010c2c   0x00000030   Code   RO         2352    .text               c_w.l(_printf_char_common.o)
    0x08010c5c   0x0000000a   Code   RO         2354    .text               c_w.l(_sputc.o)
    0x08010c66   0x0000002c   Code   RO         2356    .text               c_w.l(_printf_char.o)
    0x08010c92   0x00000002   PAD
    0x08010c94   0x00000024   Code   RO         2358    .text               c_w.l(_printf_char_file.o)
    0x08010cb8   0x00000044   Code   RO         2361    .text               c_w.l(rt_memclr.o)
    0x08010cfc   0x00000008   Code   RO         2417    .text               c_w.l(libspace.o)
    0x08010d04   0x00000008   Code   RO         2438    .text               c_w.l(rt_locale_intlibspace.o)
    0x08010d0c   0x00000008   Code   RO         2443    .text               c_w.l(rt_errno_addr_intlibspace.o)
    0x08010d14   0x0000000e   Code   RO         2447    .text               c_w.l(h1_init.o)
    0x08010d22   0x00000034   Code   RO         2449    .text               c_w.l(h1_extend.o)
    0x08010d56   0x0000008a   Code   RO         2455    .text               c_w.l(lludiv10.o)
    0x08010de0   0x00000030   Code   RO         2457    .text               c_w.l(_fptrap.o)
    0x08010e10   0x00000080   Code   RO         2459    .text               c_w.l(_printf_fp_infnan.o)
    0x08010e90   0x000000dc   Code   RO         2463    .text               c_w.l(bigflt0.o)
    0x08010f6c   0x00000008   Code   RO         2488    .text               c_w.l(ferror.o)
    0x08010f74   0x0000000e   Code   RO         2495    .text               c_w.l(defsig_rtmem_outer.o)
    0x08010f82   0x0000004a   Code   RO         2559    .text               c_w.l(sys_stackheap_outer.o)
    0x08010fcc   0x0000000c   Code   RO         2567    .text               c_w.l(exit.o)
    0x08010fd8   0x0000000a   Code   RO         2569    .text               c_w.l(defsig_exit.o)
    0x08010fe2   0x0000000e   Code   RO         2571    .text               c_w.l(defsig_fpe_outer.o)
    0x08010ff0   0x00000050   Code   RO         2575    .text               c_w.l(defsig_rtmem_inner.o)
    0x08011040   0x00000080   Code   RO         2577    .text               c_w.l(strcmpv7m.o)
    0x080110c0   0x00000032   Code   RO         2600    .text               c_w.l(defsig_general.o)
    0x080110f2   0x00000002   PAD
    0x080110f4   0x000000ac   Code   RO         2602    .text               c_w.l(defsig_fpe_inner.o)
    0x080111a0   0x0000003e   Code   RO         2466    CL$$btod_d2e        c_w.l(btod.o)
    0x080111de   0x00000046   Code   RO         2468    CL$$btod_d2e_denorm_low  c_w.l(btod.o)
    0x08011224   0x00000060   Code   RO         2467    CL$$btod_d2e_norm_op1  c_w.l(btod.o)
    0x08011284   0x00000338   Code   RO         2476    CL$$btod_div_common  c_w.l(btod.o)
    0x080115bc   0x000000c6   Code   RO         2473    CL$$btod_e2e        c_w.l(btod.o)
    0x08011682   0x00000028   Code   RO         2470    CL$$btod_ediv       c_w.l(btod.o)
    0x080116aa   0x00000028   Code   RO         2469    CL$$btod_emul       c_w.l(btod.o)
    0x080116d2   0x00000244   Code   RO         2475    CL$$btod_mult_common  c_w.l(btod.o)
    0x08011916   0x0000001a   Code   RO         1885    i.AHRS_fabs         AHRS.lib(ahrs.o)
    0x08011930   0x0000029c   Code   RO         1886    i.AHRS_init         AHRS.lib(ahrs.o)
    0x08011bcc   0x0000013a   Code   RO         1887    i.AHRS_update       AHRS.lib(ahrs.o)
    0x08011d06   0x00000030   Code   RO         2555    i.__ARM_fpclassify  m_wm.l(fpclassify.o)
    0x08011d36   0x00000026   Code   RO         2386    i.__ARM_fpclassifyf  m_wm.l(fpclassifyf.o)
    0x08011d5c   0x00000118   Code   RO         2260    i.__hardfp_acosf    m_wm.l(acosf.o)
    0x08011e74   0x0000012c   Code   RO         2272    i.__hardfp_asinf    m_wm.l(asinf.o)
    0x08011fa0   0x00000250   Code   RO         2284    i.__hardfp_atan2f   m_wm.l(atan2f.o)
    0x080121f0   0x00000014   Code   RO         2296    i.__hardfp_fabs     m_wm.l(fabs.o)
    0x08012204   0x0000017c   Code   RO         2302    i.__hardfp_tanf     m_wm.l(tanf.o)
    0x08012380   0x00000006   Code   RO         2389    i.__mathlib_flt_infnan  m_wm.l(funder.o)
    0x08012386   0x00000006   Code   RO         2390    i.__mathlib_flt_infnan2  m_wm.l(funder.o)
    0x0801238c   0x00000010   Code   RO         2391    i.__mathlib_flt_invalid  m_wm.l(funder.o)
    0x0801239c   0x00000010   Code   RO         2394    i.__mathlib_flt_underflow  m_wm.l(funder.o)
    0x080123ac   0x00000154   Code   RO         2402    i.__mathlib_rredf2  m_wm.l(rredf.o)
    0x08012500   0x000001d0   Code   RO         1888    i.accel_comple_filter  AHRS.lib(ahrs.o)
    0x080126d0   0x0000018c   Code   RO         1889    i.accel_update_kp_ki  AHRS.lib(ahrs.o)
    0x0801285c   0x0000016c   Code   RO         1890    i.angle_to_quat     AHRS.lib(ahrs.o)
    0x080129c8   0x000000e8   Code   RO         1891    i.get_angle         AHRS.lib(ahrs.o)
    0x08012ab0   0x00000084   Code   RO         1896    i.quat_normalization  AHRS.lib(ahrs.o)
    0x08012b34   0x0000003e   Code   RO         2407    i.sqrtf             m_wm.l(sqrtf_full.o)
    0x08012b72   0x0000007a   Code   RO         1897    i.update_w          AHRS.lib(ahrs.o)
    0x08012bec   0x0000002c   Code   RO         2493    locale$$code        c_w.l(lc_numeric_c.o)
    0x08012c18   0x000002c4   Code   RO         2250    x$fpl$d2f           g_wm.l(d2f_clz.o)
    0x08012edc   0x00000018   Code   RO         2363    x$fpl$dcmpinf       g_wm.l(dcmpi.o)
    0x08012ef4   0x0000001a   Code   RO         2367    x$fpl$dfltn         g_wm.l(dflt_clz.o)
    0x08012f0e   0x00000002   PAD
    0x08012f10   0x00000078   Code   RO         2252    x$fpl$dleqf         g_wm.l(dleqf.o)
    0x08012f88   0x00000102   Code   RO         2371    x$fpl$dnaninf       g_wm.l(dnaninf.o)
    0x0801308a   0x00000070   Code   RO         2587    x$fpl$drenorm       g_wm.l(drenorm_clz.o)
    0x080130fa   0x0000000c   Code   RO         2373    x$fpl$dretinf       g_wm.l(dretinf.o)
    0x08013106   0x00000062   Code   RO         2254    x$fpl$drleqf        g_wm.l(drleqf.o)
    0x08013168   0x0000017a   Code   RO         2549    x$fpl$dunder        g_wm.l(dunder_clz.o)
    0x080132e2   0x00000002   PAD
    0x080132e4   0x000001ec   Code   RO         2375    x$fpl$exception     g_wm.l(except.o)
    0x080134d0   0x0000007a   Code   RO         2256    x$fpl$f2d           g_wm.l(f2d.o)
    0x0801354a   0x000000f2   Code   RO         2377    x$fpl$fnaninf       g_wm.l(fnaninf.o)
    0x0801363c   0x0000000a   Code   RO         2589    x$fpl$fpinit        g_wm.l(fpinit.o)
    0x08013646   0x0000000a   Code   RO         2379    x$fpl$fretinf       g_wm.l(fretinf.o)
    0x08013650   0x0000013c   Code   RO         2381    x$fpl$funder        g_wm.l(funder_clz.o)
    0x0801378c   0x00000020   Code   RO         2551    x$fpl$ieeestatus    g_wm.l(istatus.o)
    0x080137ac   0x00000004   Code   RO         2258    x$fpl$printf1       g_wm.l(printf1.o)
    0x080137b0   0x000000b2   Code   RO         2553    x$fpl$retnan        g_wm.l(retnan.o)
    0x08013862   0x0000007e   Code   RO         2383    x$fpl$trapveneer    g_wm.l(trapv.o)
    0x080138e0   0x00000000   Code   RO         2385    x$fpl$usenofp       g_wm.l(usenofp.o)
    0x080138e0   0x00000014   Data   RO          664    .constdata          usart6.o
    0x080138f4   0x0000000f   Data   RO         1253    .constdata          calibrate_task.o
    0x08013903   0x00000001   PAD
    0x08013904   0x00000030   Data   RO         1296    .constdata          detect_task.o
    0x08013934   0x00000018   Data   RO         1363    .constdata          gimbal_task.o
    0x0801394c   0x00000030   Data   RO         1398    .constdata          ins_task.o
    0x0801397c   0x00000020   Data   RO         1587    .constdata          chassis_task.o
    0x0801399c   0x00000060   Data   RO         1611    .constdata          shoot.o
    0x080139fc   0x00000302   Data   RO         1657    .constdata          referee_dispatchtask.o
    0x08013cfe   0x0000000c   Data   RO         1791    .constdata          ist8310driver.o
    0x08013d0a   0x0000002a   Data   RO         1845    .constdata          mpu6500driver.o
    0x08013d34   0x0000000c   Data   RO         1898    .constdata          AHRS.lib(ahrs.o)
    0x08013d40   0x00000804   Data   RO         2108    .constdata          arm_cortexM4lf_math.lib(arm_common_tables.o)
    0x08014544   0x00000020   Data   RO         2403    .constdata          m_wm.l(rredf.o)
    0x08014564   0x00000094   Data   RO         2464    .constdata          c_w.l(bigflt0.o)
    0x080145f8   0x00000020   Data   RO         2649    Region$$Table       anon$$obj.o
    0x08014618   0x0000001c   Data   RO         2492    locale$$data        c_w.l(lc_numeric_c.o)


    Execution Region RW_IRAM1 (Base: 0x20000000, Size: 0x00016bd0, Max: 0x00030000, ABSOLUTE, COMPRESSED[0x00000084])

    Base Addr    Size         Type   Attr      Idx    E Section Name        Object

    0x20000000   0x00000006   Data   RW          252    .data               stm32f4xx_it.o
    0x20000006   0x00000002   PAD
    0x20000008   0x00000014   Data   RW          334    .data               system_stm32f4xx.o
    0x2000001c   0x00000004   Data   RW          360    .data               basicperipherals.o
    0x20000020   0x00000001   Data   RW          436    .data               motorcan.o
    0x20000021   0x00000003   PAD
    0x20000024   0x00000004   Data   RW          574    .data               flash.o
    0x20000028   0x00000004   Data   RW          700    .data               delay.o
    0x2000002c   0x00000004   Data   RW          740    .data               usart.o
    0x20000030   0x00000010   Data   RW          820    .data               stm32f4xx_rcc.o
    0x20000040   0x00000018   Data   RW         1041    .data               heap_4.o
    0x20000058   0x0000000c   Data   RW         1081    .data               port.o
    0x20000064   0x00000044   Data   RW         1207    .data               tasks.o
    0x200000a8   0x00000014   Data   RW         1233    .data               timers.o
    0x200000bc   0x00000050   Data   RW         1254    .data               calibrate_task.o
    0x2000010c   0x0000000a   Data   RW         1297    .data               detect_task.o
    0x20000116   0x00000002   PAD
    0x20000118   0x0000002c   Data   RW         1326    .data               gimbal_behaviour.o
    0x20000144   0x0000003d   Data   RW         1364    .data               gimbal_task.o
    0x20000181   0x00000003   PAD
    0x20000184   0x0000007c   Data   RW         1399    .data               ins_task.o
    0x20000200   0x00000019   Data   RW         1459    .data               start_task.o
    0x20000219   0x00000001   PAD
    0x2000021a   0x0000000d   Data   RW         1532    .data               auto_attacktask.o
    0x20000227   0x00000001   PAD
    0x20000228   0x00000010   Data   RW         1558    .data               chassis_behaviour.o
    0x20000238   0x00000021   Data   RW         1612    .data               shoot.o
    0x20000259   0x00000003   PAD
    0x2000025c   0x0000000e   Data   RW         1658    .data               referee_dispatchtask.o
    0x2000026a   0x00000001   Data   RW         1846    .data               mpu6500driver.o
    0x2000026b   0x00000001   PAD
    0x2000026c   0x00000010   Data   RW         1899    .data               AHRS.lib(ahrs.o)
    0x2000027c   0x0000005e   Zero   RW          386    .bss                remotdbus.o
    0x200002da   0x0000006e   Zero   RW          435    .bss                motorcan.o
    0x20000348   0x000026cc   Zero   RW          663    .bss                usart6.o
    0x20002a14   0x00012c00   Zero   RW         1040    .bss                heap_4.o
    0x20015614   0x00000040   Zero   RW         1161    .bss                queue.o
    0x20015654   0x000002bc   Zero   RW         1206    .bss                tasks.o
    0x20015910   0x00000028   Zero   RW         1232    .bss                timers.o
    0x20015938   0x0000009d   Zero   RW         1252    .bss                calibrate_task.o
    0x200159d5   0x00000144   Zero   RW         1295    .bss                detect_task.o
    0x20015b19   0x00000003   PAD
    0x20015b1c   0x000001f0   Zero   RW         1362    .bss                gimbal_task.o
    0x20015d0c   0x00000124   Zero   RW         1397    .bss                ins_task.o
    0x20015e30   0x000000dc   Zero   RW         1531    .bss                auto_attacktask.o
    0x20015f0c   0x00000230   Zero   RW         1586    .bss                chassis_task.o
    0x2001613c   0x0000038c   Zero   RW         1610    .bss                shoot.o
    0x200164c8   0x000000a4   Zero   RW         1656    .bss                referee_dispatchtask.o
    0x2001656c   0x00000060   Zero   RW         2418    .bss                c_w.l(libspace.o)
    0x200165cc   0x00000004   PAD
    0x200165d0   0x00000200   Zero   RW          771    HEAP                startup_stm32f427_437xx.o
    0x200167d0   0x00000400   Zero   RW          770    STACK               startup_stm32f427_437xx.o


==============================================================================

Image component sizes


      Code (inc. data)   RO Data    RW Data    ZI Data      Debug   Object Name

       268         18          0          0          0       1180   adc.o
       244         12          0          0          0       3569   ahrs_middleware.o
       316         34          0         13        220       3081   auto_attacktask.o
       976         34          0          4          0       4309   basicperipherals.o
       216          8          0          0          0       1067   buzzer.o
      1908         92         15         80        157      11792   calibrate_task.o
       944         58          0         16          0       7566   chassis_behaviour.o
      2428        102         32          0        560       5915   chassis_task.o
       676          0          0          0          0       4585   circular_buffer.o
       236          8          0          4          0       1661   delay.o
      1556         66         48         10        324       4067   detect_task.o
         0          0          0          0          0       7984   event_groups.o
       136          6          0          0          0        692   exit_init.o
      1404         94          0          4          0       4896   flash.o
       304          4          0          0          0       1987   frictionmoterpwm.o
      2568        140          0         44          0      10573   gimbal_behaviour.o
      3188        138         24         61        496       9808   gimbal_task.o
       668         24          0         24      76800      13228   heap_4.o
      1556        190         48        124        292       7106   ins_task.o
       412         10         12          0          0       2610   ist8310driver.o
       320         18          0          0          0       3089   ist8310driver_middleware.o
       148          0          0          0          0       1966   list.o
       126          0          0          0          0     367417   main.o
       452         16          0          0          0       2282   mainfocus_usart.o
       224         20          0          0          0       1857   misc.o
      1472         62          0          1        110       4619   motorcan.o
       964         26         42          1          0       3612   mpu6500driver.o
       360         10          0          0          0       3145   mpu6500driver_middleware.o
       660          4          0          0          0       1874   pid.o
      1022         52          0         12          0       8983   port.o
       148          4          0          0          0       1146   power_ctrl.o
      3864         20          0          0         64      20684   queue.o
      1076         42        770         14        164       8442   referee_dispatchtask.o
       860         28          0          0         94       5139   remotdbus.o
      4916        332         96         33        908       8771   shoot.o
       592         20          0          0          0       1613   spi.o
       664        232          0         25          0      12094   start_task.o
        64         26        428          0       1536        844   startup_stm32f427_437xx.o
      1124         24          0          0          0      10530   stm32f4xx_adc.o
      2544         38          0          0          0       8008   stm32f4xx_can.o
       936         32          0          0          0       6329   stm32f4xx_dma.o
       272         10          0          0          0       2303   stm32f4xx_exti.o
      1688         24          0          0          0       9190   stm32f4xx_flash.o
       660         44          0          0          0       4133   stm32f4xx_gpio.o
       724         60          0          6          0     245992   stm32f4xx_it.o
      1632         54          0         16          0      13000   stm32f4xx_rcc.o
      1262         38          0          0          0       7337   stm32f4xx_spi.o
       148         12          0          0          0       1865   stm32f4xx_syscfg.o
      3234         60          0          0          0      22336   stm32f4xx_tim.o
      1108         34          0          0          0       7832   stm32f4xx_usart.o
       580         46          0         20          0       1863   system_stm32f4xx.o
      7312        402          0         68        700      31689   tasks.o
       732         28          0          0          0       1947   timer.o
      1516         68          0         20         40      11470   timers.o
       176         10          0          4          0       3195   usart.o
      1036         56         20          0       9932       4990   usart6.o
       620         18          0          0          0       4714   user_lib.o

    ----------------------------------------------------------------------
     65248       3008       1568        620      92400     963976   Object Totals
         0          0         32          0          0          0   (incl. Generated)
         8          0          1         16          3          0   (incl. Padding)

    ----------------------------------------------------------------------

      Code (inc. data)   RO Data    RW Data    ZI Data      Debug   Library Member Name

      2718         84         12         16          0       9922   ahrs.o
         0          0       2052          0          0       4636   arm_common_tables.o
       120         12          0          0          0      16970   arm_cos_f32.o
       116         12          0          0          0        658   arm_sin_f32.o
        90          0          0          0          0          0   __dczerorl2.o
         8          0          0          0          0         68   __main.o
       104          0          0          0          0         84   __printf.o
         0          0          0          0          0          0   __rtentry.o
        12          0          0          0          0          0   __rtentry2.o
         6          0          0          0          0          0   __rtentry4.o
        52          8          0          0          0          0   __scatter.o
        28          0          0          0          0          0   __scatter_zi.o
        48          4          0          0          0         84   _fptrap.o
         6          0          0          0          0          0   _printf_c.o
        44          0          0          0          0        108   _printf_char.o
        48          6          0          0          0         96   _printf_char_common.o
        36          4          0          0          0         80   _printf_char_file.o
         6          0          0          0          0          0   _printf_d.o
       120         16          0          0          0         92   _printf_dec.o
         6          0          0          0          0          0   _printf_f.o
      1050          0          0          0          0        216   _printf_fp_dec.o
       128         16          0          0          0         84   _printf_fp_infnan.o
       178          0          0          0          0         88   _printf_intcommon.o
         0          0          0          0          0          0   _printf_percent.o
         4          0          0          0          0          0   _printf_percent_end.o
        82          0          0          0          0         80   _printf_str.o
         6          0          0          0          0          0   _printf_u.o
        22          0          0          0          0        100   _rserrno.o
        10          0          0          0          0         68   _sputc.o
        16          0          0          0          0         68   aeabi_memset.o
       220          4        148          0          0         96   bigflt0.o
      1910        128          0          0          0        672   btod.o
        40          0          0          0          0         80   calloc.o
        10          0          0          0          0         68   defsig_exit.o
       172        110          0          0          0         76   defsig_fpe_inner.o
        14          0          0          0          0         80   defsig_fpe_outer.o
        50          0          0          0          0         88   defsig_general.o
        80         58          0          0          0         76   defsig_rtmem_inner.o
        14          0          0          0          0         80   defsig_rtmem_outer.o
        12          0          0          0          0         72   exit.o
         8          0          0          0          0         68   ferror.o
        94          0          0          0          0         80   h1_alloc.o
        52          0          0          0          0         68   h1_extend.o
        78          0          0          0          0         80   h1_free.o
        14          0          0          0          0         84   h1_init.o
         6          0          0          0          0        152   heapauxi.o
         4          0          0          0          0        136   hguard.o
       138          0          0          0          0        168   init_alloc.o
        44         10         28          0          0         76   lc_numeric_c.o
         2          0          0          0          0          0   libinit.o
        30          0          0          0          0          0   libinit2.o
         2          0          0          0          0          0   libshutdown.o
         2          0          0          0          0          0   libshutdown2.o
         8          4          0          0         96         68   libspace.o
       138          0          0          0          0         80   lludiv10.o
         0          0          0          0          0          0   maybetermalloc1.o
        24          4          0          0          0         84   noretval__2printf.o
        40          6          0          0          0         84   noretval__2sprintf.o
         8          4          0          0          0         68   rt_errno_addr_intlibspace.o
         8          4          0          0          0         68   rt_heap_descriptor_intlibspace.o
         8          4          0          0          0         68   rt_locale_intlibspace.o
        68          0          0          0          0         68   rt_memclr.o
        78          0          0          0          0         80   rt_memclr_w.o
       138          0          0          0          0         68   rt_memcpy_v6.o
       100          0          0          0          0         80   rt_memcpy_w.o
         2          0          0          0          0          0   rtexit.o
        10          0          0          0          0          0   rtexit2.o
       128          0          0          0          0         68   strcmpv7m.o
        72          0          0          0          0         80   strcpy.o
        62          0          0          0          0         76   strlen.o
        74          0          0          0          0         80   sys_stackheap_outer.o
         2          0          0          0          0         68   use_no_semi.o
         2          0          0          0          0         68   use_no_semi_2.o
       708         16          0          0          0        140   d2f_clz.o
        24          0          0          0          0        116   dcmpi.o
        26          0          0          0          0        116   dflt_clz.o
       120          8          0          0          0        140   dleqf.o
       258          4          0          0          0        156   dnaninf.o
       112          0          0          0          0        160   drenorm_clz.o
        12          0          0          0          0        116   dretinf.o
        98          0          0          0          0        128   drleqf.o
       378          0          0          0          0        168   dunder_clz.o
       492         36          0          0          0        148   except.o
       122          8          0          0          0        132   f2d.o
       242          4          0          0          0        144   fnaninf.o
        10          0          0          0          0        116   fpinit.o
        10          0          0          0          0        116   fretinf.o
       316          0          0          0          0        132   funder_clz.o
        32          4          0          0          0        116   istatus.o
         4          0          0          0          0        116   printf1.o
       178          0          0          0          0        116   retnan.o
       126          0          0          0          0        148   trapv.o
         0          0          0          0          0          0   usenofp.o
       280         46          0          0          0        176   acosf.o
       300         42          0          0          0        176   asinf.o
       592         90          0          0          0        184   atan2f.o
        20          0          0          0          0        124   fabs.o
        48          0          0          0          0        124   fpclassify.o
        38          0          0          0          0        116   fpclassifyf.o
        44         12          0          0          0        464   funder.o
       340         24         32          0          0        160   rredf.o
        62          0          0          0          0        136   sqrtf_full.o
       380         58          0          0          0        200   tanf.o

    ----------------------------------------------------------------------
     14420        850       2272         16        100      41442   Library Totals
        18          0          0          0          4          0   (incl. Padding)

    ----------------------------------------------------------------------

      Code (inc. data)   RO Data    RW Data    ZI Data      Debug   Library Name

      2718         84         12         16          0       9922   AHRS.lib
       236         24       2052          0          0      22264   arm_cortexM4lf_math.lib
      6076        390        176          0         96       4872   c_w.l
      3268         80          0          0          0       2524   g_wm.l
      2104        272         32          0          0       1860   m_wm.l

    ----------------------------------------------------------------------
     14420        850       2272         16        100      41442   Library Totals

    ----------------------------------------------------------------------

==============================================================================


      Code (inc. data)   RO Data    RW Data    ZI Data      Debug   

     79668       3858       3840        636      92500     985058   Grand Totals
     79668       3858       3840        132      92500     985058   ELF Image Totals (compressed)
     79668       3858       3840        132          0          0   ROM Totals

==============================================================================

    Total RO  Size (Code + RO Data)                83508 (  81.55kB)
    Total RW  Size (RW Data + ZI Data)             93136 (  90.95kB)
    Total ROM Size (Code + RO Data + RW Data)      83640 (  81.68kB)

==============================================================================

